ARM GAS  /var/folders/lw/_hmdf9396f92znj902yw3qj00000gn/T//ccbdwRJx.s 			page 1


   1              		.cpu cortex-m7
   2              		.arch armv7e-m
   3              		.fpu fpv5-d16
   4              		.eabi_attribute 28, 1
   5              		.eabi_attribute 20, 1
   6              		.eabi_attribute 21, 1
   7              		.eabi_attribute 23, 3
   8              		.eabi_attribute 24, 1
   9              		.eabi_attribute 25, 1
  10              		.eabi_attribute 26, 1
  11              		.eabi_attribute 30, 2
  12              		.eabi_attribute 34, 1
  13              		.eabi_attribute 18, 4
  14              		.file	"Statistics.c"
  15              		.text
  16              	.Ltext0:
  17              		.cfi_sections	.debug_frame
  18              		.section	.text.online_average_new,"ax",%progbits
  19              		.align	1
  20              		.p2align 2,,3
  21              		.global	online_average_new
  22              		.syntax unified
  23              		.thumb
  24              		.thumb_func
  26              	online_average_new:
  27              	.LFB320:
  28              		.file 1 "lib/BTT/src/Statistics.c"
   1:lib/BTT/src/Statistics.c **** /*-____--_--------_---_-----_---_--------------------------------------- 
   2:lib/BTT/src/Statistics.c ****   / ___|| |_ __ _| |_(_)___| |_(_) ___ ___   ___ 
   3:lib/BTT/src/Statistics.c ****   \___ \| __/ _` | __| / __| __| |/ __/ __| / __|
   4:lib/BTT/src/Statistics.c ****    ___) | || (_| | |_| \__ \ |_| | (__\__ \| (__ 
   5:lib/BTT/src/Statistics.c ****   |____/ \__\__,_|\__|_|___/\__|_|\___|___(_)___|
   6:lib/BTT/src/Statistics.c **** ------------------------------------------------------------------------
   7:lib/BTT/src/Statistics.c **** 
   8:lib/BTT/src/Statistics.c **** ----------------------------------------------------------------------*/
   9:lib/BTT/src/Statistics.c **** #include "Statistics.h"
  10:lib/BTT/src/Statistics.c **** 
  11:lib/BTT/src/Statistics.c **** #include <math.h>
  12:lib/BTT/src/Statistics.c **** #include <stdlib.h>
  13:lib/BTT/src/Statistics.c **** #include <string.h> //memset, memcpy
  14:lib/BTT/src/Statistics.c **** 
  15:lib/BTT/src/Statistics.c **** /*--------------------------------------------------------------------*/
  16:lib/BTT/src/Statistics.c **** /*--___-------_-_-------------------------------------------------------
  17:lib/BTT/src/Statistics.c ****    / _ \ _ _ | (_)_ _  ___    /_\__ _____ _ _ __ _ __ _ ___ 
  18:lib/BTT/src/Statistics.c ****   | (_) | ' \| | | ' \/ -_)  / _ \ V / -_) '_/ _` / _` / -_)
  19:lib/BTT/src/Statistics.c ****    \___/|_||_|_|_|_||_\___| /_/ \_\_/\___|_| \__,_\__, \___|
  20:lib/BTT/src/Statistics.c **** --------------------------------------------------|___/-----------------
  21:lib/BTT/src/Statistics.c ****   Calculate the mean and variance of a signal one sample at a time.
  22:lib/BTT/src/Statistics.c **** ----------------------------------------------------------------------*/
  23:lib/BTT/src/Statistics.c **** struct opaque_online_average_struct
  24:lib/BTT/src/Statistics.c **** {
  25:lib/BTT/src/Statistics.c ****   unsigned     n;
  26:lib/BTT/src/Statistics.c ****   double       mean;
  27:lib/BTT/src/Statistics.c ****   double       variance;
  28:lib/BTT/src/Statistics.c ****   double       old_mean;
  29:lib/BTT/src/Statistics.c ****   double       s;
  30:lib/BTT/src/Statistics.c ****   double       old_s;
ARM GAS  /var/folders/lw/_hmdf9396f92znj902yw3qj00000gn/T//ccbdwRJx.s 			page 2


  31:lib/BTT/src/Statistics.c **** };
  32:lib/BTT/src/Statistics.c **** 
  33:lib/BTT/src/Statistics.c **** /*--------------------------------------------------------------------*/
  34:lib/BTT/src/Statistics.c **** OnlineAverage* online_average_new()
  35:lib/BTT/src/Statistics.c **** {
  29              		.loc 1 35 1 view -0
  30              		.cfi_startproc
  31              		@ args = 0, pretend = 0, frame = 0
  32              		@ frame_needed = 0, uses_anonymous_args = 0
  36:lib/BTT/src/Statistics.c ****   OnlineAverage* self = calloc(1, sizeof(*self));
  33              		.loc 1 36 3 view .LVU1
  35:lib/BTT/src/Statistics.c ****   OnlineAverage* self = calloc(1, sizeof(*self));
  34              		.loc 1 35 1 is_stmt 0 view .LVU2
  35 0000 08B5     		push	{r3, lr}
  36              		.cfi_def_cfa_offset 8
  37              		.cfi_offset 3, -8
  38              		.cfi_offset 14, -4
  39              		.loc 1 36 25 view .LVU3
  40 0002 3021     		movs	r1, #48
  41 0004 0120     		movs	r0, #1
  42 0006 FFF7FEFF 		bl	calloc
  43              	.LVL0:
  37:lib/BTT/src/Statistics.c ****   if(self != NULL)
  44              		.loc 1 37 3 is_stmt 1 view .LVU4
  45              		.loc 1 37 5 is_stmt 0 view .LVU5
  46 000a 38B1     		cbz	r0, .L1
  38:lib/BTT/src/Statistics.c ****     {
  39:lib/BTT/src/Statistics.c ****       online_average_init(self);
  47              		.loc 1 39 7 is_stmt 1 view .LVU6
  48              	.LVL1:
  49              	.LBB44:
  50              	.LBI44:
  40:lib/BTT/src/Statistics.c ****     }
  41:lib/BTT/src/Statistics.c ****   return self;
  42:lib/BTT/src/Statistics.c **** }
  43:lib/BTT/src/Statistics.c **** 
  44:lib/BTT/src/Statistics.c **** /*--------------------------------------------------------------------*/
  45:lib/BTT/src/Statistics.c **** void online_average_init(OnlineAverage* self)
  51              		.loc 1 45 6 view .LVU7
  52              	.LBB45:
  46:lib/BTT/src/Statistics.c **** {
  47:lib/BTT/src/Statistics.c ****   self->n          = 0;
  53              		.loc 1 47 3 view .LVU8
  48:lib/BTT/src/Statistics.c ****   self->mean       = 0;
  54              		.loc 1 48 3 view .LVU9
  49:lib/BTT/src/Statistics.c ****   self->variance   = 0;
  55              		.loc 1 49 3 view .LVU10
  50:lib/BTT/src/Statistics.c ****   self->old_mean   = 0;
  56              		.loc 1 50 3 view .LVU11
  57              		.loc 1 50 20 is_stmt 0 view .LVU12
  58 000c 0022     		movs	r2, #0
  59 000e 0023     		movs	r3, #0
  60 0010 C0E90623 		strd	r2, [r0, #24]
  51:lib/BTT/src/Statistics.c ****   self->s          = 0;
  61              		.loc 1 51 3 is_stmt 1 view .LVU13
  62              		.loc 1 51 20 is_stmt 0 view .LVU14
  63 0014 C0E90823 		strd	r2, [r0, #32]
ARM GAS  /var/folders/lw/_hmdf9396f92znj902yw3qj00000gn/T//ccbdwRJx.s 			page 3


  52:lib/BTT/src/Statistics.c ****   self->old_s      = 0;
  64              		.loc 1 52 3 is_stmt 1 view .LVU15
  65              		.loc 1 52 20 is_stmt 0 view .LVU16
  66 0018 C0E90A23 		strd	r2, [r0, #40]
  67              	.LVL2:
  68              		.loc 1 52 20 view .LVU17
  69              	.LBE45:
  70              	.LBE44:
  41:lib/BTT/src/Statistics.c **** }
  71              		.loc 1 41 3 is_stmt 1 view .LVU18
  72              	.L1:
  42:lib/BTT/src/Statistics.c **** 
  73              		.loc 1 42 1 is_stmt 0 view .LVU19
  74 001c 08BD     		pop	{r3, pc}
  75              		.cfi_endproc
  76              	.LFE320:
  78 001e 00BF     		.section	.text.online_average_init,"ax",%progbits
  79              		.align	1
  80              		.p2align 2,,3
  81              		.global	online_average_init
  82              		.syntax unified
  83              		.thumb
  84              		.thumb_func
  86              	online_average_init:
  87              	.LVL3:
  88              	.LFB321:
  46:lib/BTT/src/Statistics.c ****   self->n          = 0;
  89              		.loc 1 46 1 is_stmt 1 view -0
  90              		.cfi_startproc
  91              		@ args = 0, pretend = 0, frame = 0
  92              		@ frame_needed = 0, uses_anonymous_args = 0
  93              		@ link register save eliminated.
  47:lib/BTT/src/Statistics.c ****   self->mean       = 0;
  94              		.loc 1 47 3 view .LVU21
  48:lib/BTT/src/Statistics.c ****   self->variance   = 0;
  95              		.loc 1 48 20 is_stmt 0 view .LVU22
  96 0000 0022     		movs	r2, #0
  97 0002 0023     		movs	r3, #0
  47:lib/BTT/src/Statistics.c ****   self->mean       = 0;
  98              		.loc 1 47 20 view .LVU23
  99 0004 0021     		movs	r1, #0
  48:lib/BTT/src/Statistics.c ****   self->variance   = 0;
 100              		.loc 1 48 20 view .LVU24
 101 0006 C0E90223 		strd	r2, [r0, #8]
  47:lib/BTT/src/Statistics.c ****   self->mean       = 0;
 102              		.loc 1 47 20 view .LVU25
 103 000a 0160     		str	r1, [r0]
  48:lib/BTT/src/Statistics.c ****   self->variance   = 0;
 104              		.loc 1 48 3 is_stmt 1 view .LVU26
  49:lib/BTT/src/Statistics.c ****   self->old_mean   = 0;
 105              		.loc 1 49 3 view .LVU27
  49:lib/BTT/src/Statistics.c ****   self->old_mean   = 0;
 106              		.loc 1 49 20 is_stmt 0 view .LVU28
 107 000c C0E90423 		strd	r2, [r0, #16]
  50:lib/BTT/src/Statistics.c ****   self->s          = 0;
 108              		.loc 1 50 3 is_stmt 1 view .LVU29
  50:lib/BTT/src/Statistics.c ****   self->s          = 0;
ARM GAS  /var/folders/lw/_hmdf9396f92znj902yw3qj00000gn/T//ccbdwRJx.s 			page 4


 109              		.loc 1 50 20 is_stmt 0 view .LVU30
 110 0010 C0E90623 		strd	r2, [r0, #24]
  51:lib/BTT/src/Statistics.c ****   self->old_s      = 0;
 111              		.loc 1 51 3 is_stmt 1 view .LVU31
  51:lib/BTT/src/Statistics.c ****   self->old_s      = 0;
 112              		.loc 1 51 20 is_stmt 0 view .LVU32
 113 0014 C0E90823 		strd	r2, [r0, #32]
 114              		.loc 1 52 3 is_stmt 1 view .LVU33
 115              		.loc 1 52 20 is_stmt 0 view .LVU34
 116 0018 C0E90A23 		strd	r2, [r0, #40]
  53:lib/BTT/src/Statistics.c **** }
 117              		.loc 1 53 1 view .LVU35
 118 001c 7047     		bx	lr
 119              		.cfi_endproc
 120              	.LFE321:
 122 001e 00BF     		.section	.text.online_average_destroy,"ax",%progbits
 123              		.align	1
 124              		.p2align 2,,3
 125              		.global	online_average_destroy
 126              		.syntax unified
 127              		.thumb
 128              		.thumb_func
 130              	online_average_destroy:
 131              	.LVL4:
 132              	.LFB322:
  54:lib/BTT/src/Statistics.c **** 
  55:lib/BTT/src/Statistics.c **** /*--------------------------------------------------------------------*/
  56:lib/BTT/src/Statistics.c **** OnlineAverage* online_average_destroy(OnlineAverage* self)
  57:lib/BTT/src/Statistics.c **** {
 133              		.loc 1 57 1 is_stmt 1 view -0
 134              		.cfi_startproc
 135              		@ args = 0, pretend = 0, frame = 0
 136              		@ frame_needed = 0, uses_anonymous_args = 0
  58:lib/BTT/src/Statistics.c ****   if(self != NULL)
 137              		.loc 1 58 3 view .LVU37
 138              		.loc 1 58 5 is_stmt 0 view .LVU38
 139 0000 20B1     		cbz	r0, .L15
  59:lib/BTT/src/Statistics.c ****     {
  60:lib/BTT/src/Statistics.c ****       free(self);
 140              		.loc 1 60 7 is_stmt 1 view .LVU39
  57:lib/BTT/src/Statistics.c ****   if(self != NULL)
 141              		.loc 1 57 1 is_stmt 0 view .LVU40
 142 0002 08B5     		push	{r3, lr}
 143              		.cfi_def_cfa_offset 8
 144              		.cfi_offset 3, -8
 145              		.cfi_offset 14, -4
 146              		.loc 1 60 7 view .LVU41
 147 0004 FFF7FEFF 		bl	free
 148              	.LVL5:
  61:lib/BTT/src/Statistics.c ****     }
  62:lib/BTT/src/Statistics.c ****   return (OnlineAverage*) NULL;
 149              		.loc 1 62 3 is_stmt 1 view .LVU42
  63:lib/BTT/src/Statistics.c **** }
 150              		.loc 1 63 1 is_stmt 0 view .LVU43
 151 0008 0020     		movs	r0, #0
 152 000a 08BD     		pop	{r3, pc}
 153              	.LVL6:
ARM GAS  /var/folders/lw/_hmdf9396f92znj902yw3qj00000gn/T//ccbdwRJx.s 			page 5


 154              	.L15:
 155              		.cfi_def_cfa_offset 0
 156              		.cfi_restore 3
 157              		.cfi_restore 14
  62:lib/BTT/src/Statistics.c **** }
 158              		.loc 1 62 3 is_stmt 1 view .LVU44
 159              		.loc 1 63 1 is_stmt 0 view .LVU45
 160 000c 0020     		movs	r0, #0
 161              	.LVL7:
 162              		.loc 1 63 1 view .LVU46
 163 000e 7047     		bx	lr
 164              		.cfi_endproc
 165              	.LFE322:
 167              		.section	.text.online_average_n,"ax",%progbits
 168              		.align	1
 169              		.p2align 2,,3
 170              		.global	online_average_n
 171              		.syntax unified
 172              		.thumb
 173              		.thumb_func
 175              	online_average_n:
 176              	.LVL8:
 177              	.LFB323:
  64:lib/BTT/src/Statistics.c **** 
  65:lib/BTT/src/Statistics.c **** /*--------------------------------------------------------------------*/
  66:lib/BTT/src/Statistics.c **** int online_average_n(OnlineAverage* self)
  67:lib/BTT/src/Statistics.c **** {
 178              		.loc 1 67 1 is_stmt 1 view -0
 179              		.cfi_startproc
 180              		@ args = 0, pretend = 0, frame = 0
 181              		@ frame_needed = 0, uses_anonymous_args = 0
 182              		@ link register save eliminated.
  68:lib/BTT/src/Statistics.c ****   return self->n;
 183              		.loc 1 68 3 view .LVU48
  69:lib/BTT/src/Statistics.c **** }
 184              		.loc 1 69 1 is_stmt 0 view .LVU49
 185 0000 0068     		ldr	r0, [r0]
 186              	.LVL9:
 187              		.loc 1 69 1 view .LVU50
 188 0002 7047     		bx	lr
 189              		.cfi_endproc
 190              	.LFE323:
 192              		.section	.text.online_average_mean,"ax",%progbits
 193              		.align	1
 194              		.p2align 2,,3
 195              		.global	online_average_mean
 196              		.syntax unified
 197              		.thumb
 198              		.thumb_func
 200              	online_average_mean:
 201              	.LVL10:
 202              	.LFB324:
  70:lib/BTT/src/Statistics.c **** 
  71:lib/BTT/src/Statistics.c **** /*--------------------------------------------------------------------*/
  72:lib/BTT/src/Statistics.c **** double     online_average_mean(OnlineAverage* self)
  73:lib/BTT/src/Statistics.c **** {
 203              		.loc 1 73 1 is_stmt 1 view -0
ARM GAS  /var/folders/lw/_hmdf9396f92znj902yw3qj00000gn/T//ccbdwRJx.s 			page 6


 204              		.cfi_startproc
 205              		@ args = 0, pretend = 0, frame = 0
 206              		@ frame_needed = 0, uses_anonymous_args = 0
 207              		@ link register save eliminated.
  74:lib/BTT/src/Statistics.c ****   return self->mean;
 208              		.loc 1 74 3 view .LVU52
  75:lib/BTT/src/Statistics.c **** }
 209              		.loc 1 75 1 is_stmt 0 view .LVU53
 210 0000 90ED020B 		vldr.64	d0, [r0, #8]
 211 0004 7047     		bx	lr
 212              		.cfi_endproc
 213              	.LFE324:
 215 0006 00BF     		.section	.text.online_average_variance,"ax",%progbits
 216              		.align	1
 217              		.p2align 2,,3
 218              		.global	online_average_variance
 219              		.syntax unified
 220              		.thumb
 221              		.thumb_func
 223              	online_average_variance:
 224              	.LVL11:
 225              	.LFB325:
  76:lib/BTT/src/Statistics.c **** 
  77:lib/BTT/src/Statistics.c **** /*--------------------------------------------------------------------*/
  78:lib/BTT/src/Statistics.c **** double     online_average_variance(OnlineAverage* self)
  79:lib/BTT/src/Statistics.c **** {
 226              		.loc 1 79 1 is_stmt 1 view -0
 227              		.cfi_startproc
 228              		@ args = 0, pretend = 0, frame = 0
 229              		@ frame_needed = 0, uses_anonymous_args = 0
 230              		@ link register save eliminated.
  80:lib/BTT/src/Statistics.c ****   return self->variance;
 231              		.loc 1 80 3 view .LVU55
  81:lib/BTT/src/Statistics.c **** }
 232              		.loc 1 81 1 is_stmt 0 view .LVU56
 233 0000 90ED040B 		vldr.64	d0, [r0, #16]
 234 0004 7047     		bx	lr
 235              		.cfi_endproc
 236              	.LFE325:
 238 0006 00BF     		.section	.text.online_average_std_dev,"ax",%progbits
 239              		.align	1
 240              		.p2align 2,,3
 241              		.global	online_average_std_dev
 242              		.syntax unified
 243              		.thumb
 244              		.thumb_func
 246              	online_average_std_dev:
 247              	.LVL12:
 248              	.LFB326:
  82:lib/BTT/src/Statistics.c **** 
  83:lib/BTT/src/Statistics.c **** /*--------------------------------------------------------------------*/
  84:lib/BTT/src/Statistics.c **** double     online_average_std_dev(OnlineAverage* self)
  85:lib/BTT/src/Statistics.c **** {
 249              		.loc 1 85 1 is_stmt 1 view -0
 250              		.cfi_startproc
 251              		@ args = 0, pretend = 0, frame = 0
 252              		@ frame_needed = 0, uses_anonymous_args = 0
ARM GAS  /var/folders/lw/_hmdf9396f92znj902yw3qj00000gn/T//ccbdwRJx.s 			page 7


 253              		@ link register save eliminated.
  86:lib/BTT/src/Statistics.c ****   return sqrt(self->variance);
 254              		.loc 1 86 3 view .LVU58
 255              		.loc 1 86 10 is_stmt 0 view .LVU59
 256 0000 90ED047B 		vldr.64	d7, [r0, #16]
 257 0004 B5EE407B 		vcmp.f64	d7, #0
 258 0008 F1EE10FA 		vmrs	APSR_nzcv, FPSCR
 259 000c 02D4     		bmi	.L29
 260 000e B1EEC70B 		vsqrt.f64	d0, d7
  87:lib/BTT/src/Statistics.c **** }
 261              		.loc 1 87 1 view .LVU60
 262 0012 7047     		bx	lr
 263              	.L29:
  86:lib/BTT/src/Statistics.c ****   return sqrt(self->variance);
 264              		.loc 1 86 10 view .LVU61
 265 0014 B0EE470B 		vmov.f64	d0, d7
 266 0018 FFF7FEBF 		b	sqrt
 267              	.LVL13:
  86:lib/BTT/src/Statistics.c ****   return sqrt(self->variance);
 268              		.loc 1 86 10 view .LVU62
 269              		.cfi_endproc
 270              	.LFE326:
 272              		.section	.text.online_average_update,"ax",%progbits
 273              		.align	1
 274              		.p2align 2,,3
 275              		.global	online_average_update
 276              		.syntax unified
 277              		.thumb
 278              		.thumb_func
 280              	online_average_update:
 281              	.LVL14:
 282              	.LFB327:
  88:lib/BTT/src/Statistics.c **** 
  89:lib/BTT/src/Statistics.c **** /*--------------------------------------------------------------------*/
  90:lib/BTT/src/Statistics.c **** void online_average_update(OnlineAverage* self, double     x)
  91:lib/BTT/src/Statistics.c **** {
 283              		.loc 1 91 1 is_stmt 1 view -0
 284              		.cfi_startproc
 285              		@ args = 0, pretend = 0, frame = 0
 286              		@ frame_needed = 0, uses_anonymous_args = 0
 287              		@ link register save eliminated.
  92:lib/BTT/src/Statistics.c ****   ++self->n;
 288              		.loc 1 92 3 view .LVU64
 289              		.loc 1 92 9 is_stmt 0 view .LVU65
 290 0000 0268     		ldr	r2, [r0]
 291              		.loc 1 92 3 view .LVU66
 292 0002 531C     		adds	r3, r2, #1
  93:lib/BTT/src/Statistics.c ****   
  94:lib/BTT/src/Statistics.c ****   if (self->n == 1)
 293              		.loc 1 94 6 view .LVU67
 294 0004 012B     		cmp	r3, #1
  92:lib/BTT/src/Statistics.c ****   ++self->n;
 295              		.loc 1 92 3 view .LVU68
 296 0006 0360     		str	r3, [r0]
 297              		.loc 1 94 3 is_stmt 1 view .LVU69
 298              		.loc 1 94 6 is_stmt 0 view .LVU70
 299 0008 24D0     		beq	.L33
ARM GAS  /var/folders/lw/_hmdf9396f92znj902yw3qj00000gn/T//ccbdwRJx.s 			page 8


  95:lib/BTT/src/Statistics.c ****     {
  96:lib/BTT/src/Statistics.c ****       self->old_mean = self->mean = x;
  97:lib/BTT/src/Statistics.c ****       self->old_s    = 0.0;
  98:lib/BTT/src/Statistics.c ****     }
  99:lib/BTT/src/Statistics.c ****   else
 100:lib/BTT/src/Statistics.c ****     {
 101:lib/BTT/src/Statistics.c ****       self->mean     = self->old_mean + (x - self->old_mean) / self->n;
 300              		.loc 1 101 7 is_stmt 1 view .LVU71
 301              		.loc 1 101 62 is_stmt 0 view .LVU72
 302 000a 07EE903A 		vmov	s15, r3	@ int
 102:lib/BTT/src/Statistics.c ****       self->s        = self->old_s + ((x - self->old_mean) * (x - self->mean));
 103:lib/BTT/src/Statistics.c ****       self->old_mean = self->mean; 
 104:lib/BTT/src/Statistics.c ****       self->old_s    = self->s;
 105:lib/BTT/src/Statistics.c ****       self->variance = self->s / (self->n - 1);
 303              		.loc 1 105 32 view .LVU73
 304 000e 06EE902A 		vmov	s13, r2	@ int
 101:lib/BTT/src/Statistics.c ****       self->s        = self->old_s + ((x - self->old_mean) * (x - self->mean));
 305              		.loc 1 101 28 view .LVU74
 306 0012 90ED062B 		vldr.64	d2, [r0, #24]
 101:lib/BTT/src/Statistics.c ****       self->s        = self->old_s + ((x - self->old_mean) * (x - self->mean));
 307              		.loc 1 101 62 view .LVU75
 308 0016 B8EE677B 		vcvt.f64.u32	d7, s15
 309              		.loc 1 105 32 view .LVU76
 310 001a B8EE666B 		vcvt.f64.u32	d6, s13
 101:lib/BTT/src/Statistics.c ****       self->s        = self->old_s + ((x - self->old_mean) * (x - self->mean));
 311              		.loc 1 101 44 view .LVU77
 312 001e 30EE423B 		vsub.f64	d3, d0, d2
 102:lib/BTT/src/Statistics.c ****       self->s        = self->old_s + ((x - self->old_mean) * (x - self->mean));
 313              		.loc 1 102 36 view .LVU78
 314 0022 90ED0A5B 		vldr.64	d5, [r0, #40]
 101:lib/BTT/src/Statistics.c ****       self->s        = self->old_s + ((x - self->old_mean) * (x - self->mean));
 315              		.loc 1 101 62 view .LVU79
 316 0026 83EE074B 		vdiv.f64	d4, d3, d7
 102:lib/BTT/src/Statistics.c ****       self->s        = self->old_s + ((x - self->old_mean) * (x - self->mean));
 317              		.loc 1 102 36 view .LVU80
 318 002a B0EE457B 		vmov.f64	d7, d5
 101:lib/BTT/src/Statistics.c ****       self->s        = self->old_s + ((x - self->old_mean) * (x - self->mean));
 319              		.loc 1 101 39 view .LVU81
 320 002e 34EE024B 		vadd.f64	d4, d4, d2
 102:lib/BTT/src/Statistics.c ****       self->s        = self->old_s + ((x - self->old_mean) * (x - self->mean));
 321              		.loc 1 102 65 view .LVU82
 322 0032 30EE440B 		vsub.f64	d0, d0, d4
 323              	.LVL15:
 101:lib/BTT/src/Statistics.c ****       self->s        = self->old_s + ((x - self->old_mean) * (x - self->mean));
 324              		.loc 1 101 22 view .LVU83
 325 0036 80ED024B 		vstr.64	d4, [r0, #8]
 102:lib/BTT/src/Statistics.c ****       self->s        = self->old_s + ((x - self->old_mean) * (x - self->mean));
 326              		.loc 1 102 7 is_stmt 1 view .LVU84
 102:lib/BTT/src/Statistics.c ****       self->s        = self->old_s + ((x - self->old_mean) * (x - self->mean));
 327              		.loc 1 102 36 is_stmt 0 view .LVU85
 328 003a A3EE007B 		vfma.f64	d7, d3, d0
 103:lib/BTT/src/Statistics.c ****       self->old_s    = self->s;
 329              		.loc 1 103 22 view .LVU86
 330 003e 80ED064B 		vstr.64	d4, [r0, #24]
 331              		.loc 1 105 32 view .LVU87
 332 0042 87EE065B 		vdiv.f64	d5, d7, d6
 102:lib/BTT/src/Statistics.c ****       self->s        = self->old_s + ((x - self->old_mean) * (x - self->mean));
ARM GAS  /var/folders/lw/_hmdf9396f92znj902yw3qj00000gn/T//ccbdwRJx.s 			page 9


 333              		.loc 1 102 22 view .LVU88
 334 0046 80ED087B 		vstr.64	d7, [r0, #32]
 103:lib/BTT/src/Statistics.c ****       self->old_s    = self->s;
 335              		.loc 1 103 7 is_stmt 1 view .LVU89
 104:lib/BTT/src/Statistics.c ****       self->variance = self->s / (self->n - 1);
 336              		.loc 1 104 7 view .LVU90
 104:lib/BTT/src/Statistics.c ****       self->variance = self->s / (self->n - 1);
 337              		.loc 1 104 22 is_stmt 0 view .LVU91
 338 004a 80ED0A7B 		vstr.64	d7, [r0, #40]
 339              		.loc 1 105 7 is_stmt 1 view .LVU92
 340              		.loc 1 105 22 is_stmt 0 view .LVU93
 341 004e 80ED045B 		vstr.64	d5, [r0, #16]
 106:lib/BTT/src/Statistics.c ****     }
 107:lib/BTT/src/Statistics.c **** }
 342              		.loc 1 107 1 view .LVU94
 343 0052 7047     		bx	lr
 344              	.LVL16:
 345              	.L33:
  96:lib/BTT/src/Statistics.c ****       self->old_s    = 0.0;
 346              		.loc 1 96 7 is_stmt 1 view .LVU95
  97:lib/BTT/src/Statistics.c ****     }
 347              		.loc 1 97 22 is_stmt 0 view .LVU96
 348 0054 0022     		movs	r2, #0
 349 0056 0023     		movs	r3, #0
  96:lib/BTT/src/Statistics.c ****       self->old_s    = 0.0;
 350              		.loc 1 96 35 view .LVU97
 351 0058 80ED020B 		vstr.64	d0, [r0, #8]
  96:lib/BTT/src/Statistics.c ****       self->old_s    = 0.0;
 352              		.loc 1 96 22 view .LVU98
 353 005c 80ED060B 		vstr.64	d0, [r0, #24]
  97:lib/BTT/src/Statistics.c ****     }
 354              		.loc 1 97 7 is_stmt 1 view .LVU99
  97:lib/BTT/src/Statistics.c ****     }
 355              		.loc 1 97 22 is_stmt 0 view .LVU100
 356 0060 C0E90A23 		strd	r2, [r0, #40]
 357 0064 7047     		bx	lr
 358              		.cfi_endproc
 359              	.LFE327:
 361 0066 00BF     		.section	.text.moving_average_init,"ax",%progbits
 362              		.align	1
 363              		.p2align 2,,3
 364              		.global	moving_average_init
 365              		.syntax unified
 366              		.thumb
 367              		.thumb_func
 369              	moving_average_init:
 370              	.LVL17:
 371              	.LFB329:
 108:lib/BTT/src/Statistics.c **** 
 109:lib/BTT/src/Statistics.c **** /*--------------------------------------------------------------------*/
 110:lib/BTT/src/Statistics.c **** /*-__--__---------_---------------_-------------------------------------
 111:lib/BTT/src/Statistics.c ****   |  \/  |_____ _(_)_ _  __ _    /_\__ _____ _ _ __ _ __ _ ___ 
 112:lib/BTT/src/Statistics.c ****   | |\/| / _ \ V / | ' \/ _` |  / _ \ V / -_) '_/ _` / _` / -_)
 113:lib/BTT/src/Statistics.c ****   |_|  |_\___/\_/|_|_||_\__, | /_/ \_\_/\___|_| \__,_\__, \___|
 114:lib/BTT/src/Statistics.c **** ------------------------|___/------------------------|___/--------------
 115:lib/BTT/src/Statistics.c ****   Calculate the moving or rolling mean and variance over the past N
 116:lib/BTT/src/Statistics.c ****   samples of a signal. This algorithm is online and updates one sample
ARM GAS  /var/folders/lw/_hmdf9396f92znj902yw3qj00000gn/T//ccbdwRJx.s 			page 10


 117:lib/BTT/src/Statistics.c ****   at a time.
 118:lib/BTT/src/Statistics.c **** ----------------------------------------------------------------------*/
 119:lib/BTT/src/Statistics.c **** struct opaque_moving_average_struct
 120:lib/BTT/src/Statistics.c **** {
 121:lib/BTT/src/Statistics.c ****   unsigned       N;  // the nominal window size
 122:lib/BTT/src/Statistics.c ****   double         mean;
 123:lib/BTT/src/Statistics.c ****   double         variance;
 124:lib/BTT/src/Statistics.c ****   double*        past_samples;
 125:lib/BTT/src/Statistics.c ****   unsigned       current_sample_index;
 126:lib/BTT/src/Statistics.c ****   double         s;
 127:lib/BTT/src/Statistics.c ****   OnlineAverage* online;  //used until there are at least self->N samples
 128:lib/BTT/src/Statistics.c **** };
 129:lib/BTT/src/Statistics.c **** 
 130:lib/BTT/src/Statistics.c **** /*--------------------------------------------------------------------*/
 131:lib/BTT/src/Statistics.c **** MovingAverage* moving_average_new(unsigned N)
 132:lib/BTT/src/Statistics.c **** {
 133:lib/BTT/src/Statistics.c ****   MovingAverage* self = calloc(1, sizeof(*self));
 134:lib/BTT/src/Statistics.c ****   if(self != NULL)
 135:lib/BTT/src/Statistics.c ****     {
 136:lib/BTT/src/Statistics.c ****       self->N = N;
 137:lib/BTT/src/Statistics.c ****       self->past_samples = calloc(self->N, sizeof(*self->past_samples));
 138:lib/BTT/src/Statistics.c ****       if(self->past_samples == NULL)
 139:lib/BTT/src/Statistics.c ****         return moving_average_destroy(self);
 140:lib/BTT/src/Statistics.c ****       
 141:lib/BTT/src/Statistics.c ****       self->online = online_average_new();
 142:lib/BTT/src/Statistics.c ****       if(self->online == NULL)
 143:lib/BTT/src/Statistics.c ****         return moving_average_destroy(self);
 144:lib/BTT/src/Statistics.c ****       
 145:lib/BTT/src/Statistics.c ****       moving_average_init(self);
 146:lib/BTT/src/Statistics.c ****     }
 147:lib/BTT/src/Statistics.c ****   return self;
 148:lib/BTT/src/Statistics.c **** }
 149:lib/BTT/src/Statistics.c **** 
 150:lib/BTT/src/Statistics.c **** /*--------------------------------------------------------------------*/
 151:lib/BTT/src/Statistics.c **** void moving_average_init(MovingAverage* self)
 152:lib/BTT/src/Statistics.c **** {
 372              		.loc 1 152 1 is_stmt 1 view -0
 373              		.cfi_startproc
 374              		@ args = 0, pretend = 0, frame = 0
 375              		@ frame_needed = 0, uses_anonymous_args = 0
 376              		@ link register save eliminated.
 153:lib/BTT/src/Statistics.c ****   self->mean                 = 0;
 377              		.loc 1 153 3 view .LVU102
 378              		.loc 1 153 30 is_stmt 0 view .LVU103
 379 0000 0022     		movs	r2, #0
 380 0002 0023     		movs	r3, #0
 154:lib/BTT/src/Statistics.c ****   self->variance             = 0;
 155:lib/BTT/src/Statistics.c ****   self->current_sample_index = 0;
 156:lib/BTT/src/Statistics.c ****   self->s                    = 0;
 157:lib/BTT/src/Statistics.c ****   online_average_init(self->online);  
 381              		.loc 1 157 3 view .LVU104
 382 0004 816A     		ldr	r1, [r0, #40]
 152:lib/BTT/src/Statistics.c ****   self->mean                 = 0;
 383              		.loc 1 152 1 view .LVU105
 384 0006 10B4     		push	{r4}
 385              		.cfi_def_cfa_offset 4
 386              		.cfi_offset 4, -4
ARM GAS  /var/folders/lw/_hmdf9396f92znj902yw3qj00000gn/T//ccbdwRJx.s 			page 11


 155:lib/BTT/src/Statistics.c ****   self->s                    = 0;
 387              		.loc 1 155 30 view .LVU106
 388 0008 0024     		movs	r4, #0
 153:lib/BTT/src/Statistics.c ****   self->variance             = 0;
 389              		.loc 1 153 30 view .LVU107
 390 000a C0E90223 		strd	r2, [r0, #8]
 154:lib/BTT/src/Statistics.c ****   self->current_sample_index = 0;
 391              		.loc 1 154 3 is_stmt 1 view .LVU108
 155:lib/BTT/src/Statistics.c ****   self->s                    = 0;
 392              		.loc 1 155 30 is_stmt 0 view .LVU109
 393 000e C461     		str	r4, [r0, #28]
 154:lib/BTT/src/Statistics.c ****   self->current_sample_index = 0;
 394              		.loc 1 154 30 view .LVU110
 395 0010 C0E90423 		strd	r2, [r0, #16]
 155:lib/BTT/src/Statistics.c ****   self->s                    = 0;
 396              		.loc 1 155 3 is_stmt 1 view .LVU111
 156:lib/BTT/src/Statistics.c ****   online_average_init(self->online);  
 397              		.loc 1 156 3 view .LVU112
 156:lib/BTT/src/Statistics.c ****   online_average_init(self->online);  
 398              		.loc 1 156 30 is_stmt 0 view .LVU113
 399 0014 C0E90823 		strd	r2, [r0, #32]
 400              		.loc 1 157 3 is_stmt 1 view .LVU114
 401              	.LVL18:
 402              	.LBB48:
 403              	.LBI48:
  45:lib/BTT/src/Statistics.c **** {
 404              		.loc 1 45 6 view .LVU115
 405              	.LBB49:
  47:lib/BTT/src/Statistics.c ****   self->mean       = 0;
 406              		.loc 1 47 3 view .LVU116
  47:lib/BTT/src/Statistics.c ****   self->mean       = 0;
 407              		.loc 1 47 20 is_stmt 0 view .LVU117
 408 0018 0C60     		str	r4, [r1]
  48:lib/BTT/src/Statistics.c ****   self->variance   = 0;
 409              		.loc 1 48 3 is_stmt 1 view .LVU118
 410              	.LBE49:
 411              	.LBE48:
 158:lib/BTT/src/Statistics.c **** }
 412              		.loc 1 158 1 is_stmt 0 view .LVU119
 413 001a 5DF8044B 		ldr	r4, [sp], #4
 414              		.cfi_restore 4
 415              		.cfi_def_cfa_offset 0
 416              	.LBB51:
 417              	.LBB50:
  48:lib/BTT/src/Statistics.c ****   self->variance   = 0;
 418              		.loc 1 48 20 view .LVU120
 419 001e C1E90223 		strd	r2, [r1, #8]
  49:lib/BTT/src/Statistics.c ****   self->old_mean   = 0;
 420              		.loc 1 49 3 is_stmt 1 view .LVU121
  49:lib/BTT/src/Statistics.c ****   self->old_mean   = 0;
 421              		.loc 1 49 20 is_stmt 0 view .LVU122
 422 0022 C1E90423 		strd	r2, [r1, #16]
  50:lib/BTT/src/Statistics.c ****   self->s          = 0;
 423              		.loc 1 50 3 is_stmt 1 view .LVU123
  50:lib/BTT/src/Statistics.c ****   self->s          = 0;
 424              		.loc 1 50 20 is_stmt 0 view .LVU124
 425 0026 C1E90623 		strd	r2, [r1, #24]
ARM GAS  /var/folders/lw/_hmdf9396f92znj902yw3qj00000gn/T//ccbdwRJx.s 			page 12


  51:lib/BTT/src/Statistics.c ****   self->old_s      = 0;
 426              		.loc 1 51 3 is_stmt 1 view .LVU125
  51:lib/BTT/src/Statistics.c ****   self->old_s      = 0;
 427              		.loc 1 51 20 is_stmt 0 view .LVU126
 428 002a C1E90823 		strd	r2, [r1, #32]
  52:lib/BTT/src/Statistics.c **** }
 429              		.loc 1 52 3 is_stmt 1 view .LVU127
  52:lib/BTT/src/Statistics.c **** }
 430              		.loc 1 52 20 is_stmt 0 view .LVU128
 431 002e C1E90A23 		strd	r2, [r1, #40]
 432              	.LVL19:
  52:lib/BTT/src/Statistics.c **** }
 433              		.loc 1 52 20 view .LVU129
 434              	.LBE50:
 435              	.LBE51:
 436              		.loc 1 158 1 view .LVU130
 437 0032 7047     		bx	lr
 438              		.cfi_endproc
 439              	.LFE329:
 441              		.section	.text.moving_average_destroy,"ax",%progbits
 442              		.align	1
 443              		.p2align 2,,3
 444              		.global	moving_average_destroy
 445              		.syntax unified
 446              		.thumb
 447              		.thumb_func
 449              	moving_average_destroy:
 450              	.LVL20:
 451              	.LFB330:
 159:lib/BTT/src/Statistics.c **** 
 160:lib/BTT/src/Statistics.c **** /*--------------------------------------------------------------------*/
 161:lib/BTT/src/Statistics.c **** MovingAverage* moving_average_destroy(MovingAverage* self)
 162:lib/BTT/src/Statistics.c **** {
 452              		.loc 1 162 1 is_stmt 1 view -0
 453              		.cfi_startproc
 454              		@ args = 0, pretend = 0, frame = 0
 455              		@ frame_needed = 0, uses_anonymous_args = 0
 163:lib/BTT/src/Statistics.c ****   if(self != NULL)
 456              		.loc 1 163 3 view .LVU132
 457              		.loc 1 163 5 is_stmt 0 view .LVU133
 458 0000 70B1     		cbz	r0, .L50
 164:lib/BTT/src/Statistics.c ****     {
 165:lib/BTT/src/Statistics.c ****       if(self->past_samples != NULL)
 459              		.loc 1 165 7 is_stmt 1 view .LVU134
 162:lib/BTT/src/Statistics.c ****   if(self != NULL)
 460              		.loc 1 162 1 is_stmt 0 view .LVU135
 461 0002 10B5     		push	{r4, lr}
 462              		.cfi_def_cfa_offset 8
 463              		.cfi_offset 4, -8
 464              		.cfi_offset 14, -4
 465 0004 0446     		mov	r4, r0
 466              		.loc 1 165 14 view .LVU136
 467 0006 8069     		ldr	r0, [r0, #24]
 468              	.LVL21:
 469              		.loc 1 165 9 view .LVU137
 470 0008 08B1     		cbz	r0, .L38
 166:lib/BTT/src/Statistics.c ****         free(self->past_samples);
ARM GAS  /var/folders/lw/_hmdf9396f92znj902yw3qj00000gn/T//ccbdwRJx.s 			page 13


 471              		.loc 1 166 9 is_stmt 1 view .LVU138
 472 000a FFF7FEFF 		bl	free
 473              	.LVL22:
 474              	.L38:
 167:lib/BTT/src/Statistics.c ****         
 168:lib/BTT/src/Statistics.c ****       self->online = online_average_destroy(self->online);
 475              		.loc 1 168 7 view .LVU139
 476              		.loc 1 168 22 is_stmt 0 view .LVU140
 477 000e A06A     		ldr	r0, [r4, #40]
 478              	.LVL23:
 479              	.LBB54:
 480              	.LBI54:
  56:lib/BTT/src/Statistics.c **** {
 481              		.loc 1 56 16 is_stmt 1 view .LVU141
 482              	.LBB55:
  58:lib/BTT/src/Statistics.c ****     {
 483              		.loc 1 58 3 view .LVU142
  58:lib/BTT/src/Statistics.c ****     {
 484              		.loc 1 58 5 is_stmt 0 view .LVU143
 485 0010 08B1     		cbz	r0, .L39
  60:lib/BTT/src/Statistics.c ****     }
 486              		.loc 1 60 7 is_stmt 1 view .LVU144
 487 0012 FFF7FEFF 		bl	free
 488              	.LVL24:
 489              	.L39:
  62:lib/BTT/src/Statistics.c **** }
 490              		.loc 1 62 3 view .LVU145
  62:lib/BTT/src/Statistics.c **** }
 491              		.loc 1 62 3 is_stmt 0 view .LVU146
 492              	.LBE55:
 493              	.LBE54:
 169:lib/BTT/src/Statistics.c ****       
 170:lib/BTT/src/Statistics.c ****       free(self);
 494              		.loc 1 170 7 is_stmt 1 view .LVU147
 495 0016 2046     		mov	r0, r4
 496 0018 FFF7FEFF 		bl	free
 497              	.LVL25:
 171:lib/BTT/src/Statistics.c ****     }
 172:lib/BTT/src/Statistics.c ****   return (MovingAverage*) NULL;
 498              		.loc 1 172 3 view .LVU148
 173:lib/BTT/src/Statistics.c **** }
 499              		.loc 1 173 1 is_stmt 0 view .LVU149
 500 001c 0020     		movs	r0, #0
 501 001e 10BD     		pop	{r4, pc}
 502              	.LVL26:
 503              	.L50:
 504              		.cfi_def_cfa_offset 0
 505              		.cfi_restore 4
 506              		.cfi_restore 14
 172:lib/BTT/src/Statistics.c **** }
 507              		.loc 1 172 3 is_stmt 1 view .LVU150
 508              		.loc 1 173 1 is_stmt 0 view .LVU151
 509 0020 0020     		movs	r0, #0
 510              	.LVL27:
 511              		.loc 1 173 1 view .LVU152
 512 0022 7047     		bx	lr
 513              		.cfi_endproc
ARM GAS  /var/folders/lw/_hmdf9396f92znj902yw3qj00000gn/T//ccbdwRJx.s 			page 14


 514              	.LFE330:
 516              		.section	.text.moving_average_new,"ax",%progbits
 517              		.align	1
 518              		.p2align 2,,3
 519              		.global	moving_average_new
 520              		.syntax unified
 521              		.thumb
 522              		.thumb_func
 524              	moving_average_new:
 525              	.LVL28:
 526              	.LFB328:
 132:lib/BTT/src/Statistics.c ****   MovingAverage* self = calloc(1, sizeof(*self));
 527              		.loc 1 132 1 is_stmt 1 view -0
 528              		.cfi_startproc
 529              		@ args = 0, pretend = 0, frame = 0
 530              		@ frame_needed = 0, uses_anonymous_args = 0
 133:lib/BTT/src/Statistics.c ****   if(self != NULL)
 531              		.loc 1 133 3 view .LVU154
 132:lib/BTT/src/Statistics.c ****   MovingAverage* self = calloc(1, sizeof(*self));
 532              		.loc 1 132 1 is_stmt 0 view .LVU155
 533 0000 70B5     		push	{r4, r5, r6, lr}
 534              		.cfi_def_cfa_offset 16
 535              		.cfi_offset 4, -16
 536              		.cfi_offset 5, -12
 537              		.cfi_offset 6, -8
 538              		.cfi_offset 14, -4
 133:lib/BTT/src/Statistics.c ****   if(self != NULL)
 539              		.loc 1 133 25 view .LVU156
 540 0002 3021     		movs	r1, #48
 132:lib/BTT/src/Statistics.c ****   MovingAverage* self = calloc(1, sizeof(*self));
 541              		.loc 1 132 1 view .LVU157
 542 0004 0546     		mov	r5, r0
 133:lib/BTT/src/Statistics.c ****   if(self != NULL)
 543              		.loc 1 133 25 view .LVU158
 544 0006 0120     		movs	r0, #1
 545              	.LVL29:
 133:lib/BTT/src/Statistics.c ****   if(self != NULL)
 546              		.loc 1 133 25 view .LVU159
 547 0008 FFF7FEFF 		bl	calloc
 548              	.LVL30:
 134:lib/BTT/src/Statistics.c ****     {
 549              		.loc 1 134 3 is_stmt 1 view .LVU160
 134:lib/BTT/src/Statistics.c ****     {
 550              		.loc 1 134 5 is_stmt 0 view .LVU161
 551 000c 0446     		mov	r4, r0
 552 000e 18B3     		cbz	r0, .L53
 136:lib/BTT/src/Statistics.c ****       self->past_samples = calloc(self->N, sizeof(*self->past_samples));
 553              		.loc 1 136 7 is_stmt 1 view .LVU162
 137:lib/BTT/src/Statistics.c ****       if(self->past_samples == NULL)
 554              		.loc 1 137 28 is_stmt 0 view .LVU163
 555 0010 0821     		movs	r1, #8
 556 0012 2846     		mov	r0, r5
 557              	.LVL31:
 136:lib/BTT/src/Statistics.c ****       self->past_samples = calloc(self->N, sizeof(*self->past_samples));
 558              		.loc 1 136 15 view .LVU164
 559 0014 2560     		str	r5, [r4]
 137:lib/BTT/src/Statistics.c ****       if(self->past_samples == NULL)
ARM GAS  /var/folders/lw/_hmdf9396f92znj902yw3qj00000gn/T//ccbdwRJx.s 			page 15


 560              		.loc 1 137 7 is_stmt 1 view .LVU165
 137:lib/BTT/src/Statistics.c ****       if(self->past_samples == NULL)
 561              		.loc 1 137 28 is_stmt 0 view .LVU166
 562 0016 FFF7FEFF 		bl	calloc
 563              	.LVL32:
 564 001a 0646     		mov	r6, r0
 137:lib/BTT/src/Statistics.c ****       if(self->past_samples == NULL)
 565              		.loc 1 137 26 view .LVU167
 566 001c A061     		str	r0, [r4, #24]
 138:lib/BTT/src/Statistics.c ****         return moving_average_destroy(self);
 567              		.loc 1 138 7 is_stmt 1 view .LVU168
 138:lib/BTT/src/Statistics.c ****         return moving_average_destroy(self);
 568              		.loc 1 138 9 is_stmt 0 view .LVU169
 569 001e 30B3     		cbz	r0, .L61
 141:lib/BTT/src/Statistics.c ****       if(self->online == NULL)
 570              		.loc 1 141 7 is_stmt 1 view .LVU170
 571              	.LBB68:
 572              	.LBI68:
  34:lib/BTT/src/Statistics.c **** {
 573              		.loc 1 34 16 view .LVU171
 574              	.LBB69:
  36:lib/BTT/src/Statistics.c ****   if(self != NULL)
 575              		.loc 1 36 3 view .LVU172
  36:lib/BTT/src/Statistics.c ****   if(self != NULL)
 576              		.loc 1 36 25 is_stmt 0 view .LVU173
 577 0020 3021     		movs	r1, #48
 578 0022 0120     		movs	r0, #1
 579 0024 FFF7FEFF 		bl	calloc
 580              	.LVL33:
  37:lib/BTT/src/Statistics.c ****     {
 581              		.loc 1 37 3 is_stmt 1 view .LVU174
  37:lib/BTT/src/Statistics.c ****     {
 582              		.loc 1 37 5 is_stmt 0 view .LVU175
 583 0028 0546     		mov	r5, r0
 584              	.LVL34:
  37:lib/BTT/src/Statistics.c ****     {
 585              		.loc 1 37 5 view .LVU176
 586 002a B8B1     		cbz	r0, .L56
  39:lib/BTT/src/Statistics.c ****     }
 587              		.loc 1 39 7 is_stmt 1 view .LVU177
 588              	.LVL35:
  39:lib/BTT/src/Statistics.c ****     }
 589              		.loc 1 39 7 is_stmt 0 view .LVU178
 590              	.LBE69:
 591              	.LBE68:
  47:lib/BTT/src/Statistics.c ****   self->mean       = 0;
 592              		.loc 1 47 3 is_stmt 1 view .LVU179
  48:lib/BTT/src/Statistics.c ****   self->variance   = 0;
 593              		.loc 1 48 3 view .LVU180
  49:lib/BTT/src/Statistics.c ****   self->old_mean   = 0;
 594              		.loc 1 49 3 view .LVU181
  50:lib/BTT/src/Statistics.c ****   self->s          = 0;
 595              		.loc 1 50 3 view .LVU182
  51:lib/BTT/src/Statistics.c ****   self->old_s      = 0;
 596              		.loc 1 51 3 view .LVU183
  52:lib/BTT/src/Statistics.c **** }
 597              		.loc 1 52 3 view .LVU184
ARM GAS  /var/folders/lw/_hmdf9396f92znj902yw3qj00000gn/T//ccbdwRJx.s 			page 16


 598              	.LBB72:
 599              	.LBB70:
  41:lib/BTT/src/Statistics.c **** }
 600              		.loc 1 41 3 view .LVU185
  41:lib/BTT/src/Statistics.c **** }
 601              		.loc 1 41 3 is_stmt 0 view .LVU186
 602              	.LBE70:
 603              	.LBE72:
 604              	.LBB73:
 605              	.LBB74:
 153:lib/BTT/src/Statistics.c ****   self->variance             = 0;
 606              		.loc 1 153 30 view .LVU187
 607 002c 0022     		movs	r2, #0
 608 002e 0023     		movs	r3, #0
 155:lib/BTT/src/Statistics.c ****   self->s                    = 0;
 609              		.loc 1 155 30 view .LVU188
 610 0030 0021     		movs	r1, #0
 611              	.LBE74:
 612              	.LBE73:
 141:lib/BTT/src/Statistics.c ****       if(self->online == NULL)
 613              		.loc 1 141 20 view .LVU189
 614 0032 A062     		str	r0, [r4, #40]
 142:lib/BTT/src/Statistics.c ****         return moving_average_destroy(self);
 615              		.loc 1 142 7 is_stmt 1 view .LVU190
 145:lib/BTT/src/Statistics.c ****     }
 616              		.loc 1 145 7 view .LVU191
 617              	.LVL36:
 618              	.LBB80:
 619              	.LBI73:
 151:lib/BTT/src/Statistics.c **** {
 620              		.loc 1 151 6 view .LVU192
 621              	.LBB79:
 153:lib/BTT/src/Statistics.c ****   self->variance             = 0;
 622              		.loc 1 153 3 view .LVU193
 155:lib/BTT/src/Statistics.c ****   self->s                    = 0;
 623              		.loc 1 155 30 is_stmt 0 view .LVU194
 624 0034 E161     		str	r1, [r4, #28]
 625              	.LBB75:
 626              	.LBB76:
  47:lib/BTT/src/Statistics.c ****   self->mean       = 0;
 627              		.loc 1 47 20 view .LVU195
 628 0036 0160     		str	r1, [r0]
 629              	.LBE76:
 630              	.LBE75:
 153:lib/BTT/src/Statistics.c ****   self->variance             = 0;
 631              		.loc 1 153 30 view .LVU196
 632 0038 C4E90223 		strd	r2, [r4, #8]
 154:lib/BTT/src/Statistics.c ****   self->current_sample_index = 0;
 633              		.loc 1 154 3 is_stmt 1 view .LVU197
 154:lib/BTT/src/Statistics.c ****   self->current_sample_index = 0;
 634              		.loc 1 154 30 is_stmt 0 view .LVU198
 635 003c C4E90423 		strd	r2, [r4, #16]
 155:lib/BTT/src/Statistics.c ****   self->s                    = 0;
 636              		.loc 1 155 3 is_stmt 1 view .LVU199
 156:lib/BTT/src/Statistics.c ****   online_average_init(self->online);  
 637              		.loc 1 156 3 view .LVU200
 156:lib/BTT/src/Statistics.c ****   online_average_init(self->online);  
ARM GAS  /var/folders/lw/_hmdf9396f92znj902yw3qj00000gn/T//ccbdwRJx.s 			page 17


 638              		.loc 1 156 30 is_stmt 0 view .LVU201
 639 0040 C4E90823 		strd	r2, [r4, #32]
 157:lib/BTT/src/Statistics.c **** }
 640              		.loc 1 157 3 is_stmt 1 view .LVU202
 641              	.LVL37:
 642              	.LBB78:
 643              	.LBI75:
  45:lib/BTT/src/Statistics.c **** {
 644              		.loc 1 45 6 view .LVU203
 645              	.LBB77:
  47:lib/BTT/src/Statistics.c ****   self->mean       = 0;
 646              		.loc 1 47 3 view .LVU204
  48:lib/BTT/src/Statistics.c ****   self->variance   = 0;
 647              		.loc 1 48 3 view .LVU205
  48:lib/BTT/src/Statistics.c ****   self->variance   = 0;
 648              		.loc 1 48 20 is_stmt 0 view .LVU206
 649 0044 C0E90223 		strd	r2, [r0, #8]
  49:lib/BTT/src/Statistics.c ****   self->old_mean   = 0;
 650              		.loc 1 49 3 is_stmt 1 view .LVU207
  49:lib/BTT/src/Statistics.c ****   self->old_mean   = 0;
 651              		.loc 1 49 20 is_stmt 0 view .LVU208
 652 0048 C0E90423 		strd	r2, [r0, #16]
  50:lib/BTT/src/Statistics.c ****   self->s          = 0;
 653              		.loc 1 50 3 is_stmt 1 view .LVU209
  50:lib/BTT/src/Statistics.c ****   self->s          = 0;
 654              		.loc 1 50 20 is_stmt 0 view .LVU210
 655 004c C0E90623 		strd	r2, [r0, #24]
  51:lib/BTT/src/Statistics.c ****   self->old_s      = 0;
 656              		.loc 1 51 3 is_stmt 1 view .LVU211
  51:lib/BTT/src/Statistics.c ****   self->old_s      = 0;
 657              		.loc 1 51 20 is_stmt 0 view .LVU212
 658 0050 C0E90823 		strd	r2, [r0, #32]
  52:lib/BTT/src/Statistics.c **** }
 659              		.loc 1 52 3 is_stmt 1 view .LVU213
  52:lib/BTT/src/Statistics.c **** }
 660              		.loc 1 52 20 is_stmt 0 view .LVU214
 661 0054 C0E90A23 		strd	r2, [r0, #40]
 662              	.LVL38:
 663              	.L53:
  52:lib/BTT/src/Statistics.c **** }
 664              		.loc 1 52 20 view .LVU215
 665              	.LBE77:
 666              	.LBE78:
 667              	.LBE79:
 668              	.LBE80:
 148:lib/BTT/src/Statistics.c **** 
 669              		.loc 1 148 1 view .LVU216
 670 0058 2046     		mov	r0, r4
 671 005a 70BD     		pop	{r4, r5, r6, pc}
 672              	.LVL39:
 673              	.L56:
 674              	.LBB81:
 675              	.LBB71:
  41:lib/BTT/src/Statistics.c **** }
 676              		.loc 1 41 3 is_stmt 1 view .LVU217
  41:lib/BTT/src/Statistics.c **** }
 677              		.loc 1 41 3 is_stmt 0 view .LVU218
ARM GAS  /var/folders/lw/_hmdf9396f92znj902yw3qj00000gn/T//ccbdwRJx.s 			page 18


 678              	.LBE71:
 679              	.LBE81:
 142:lib/BTT/src/Statistics.c ****         return moving_average_destroy(self);
 680              		.loc 1 142 7 is_stmt 1 view .LVU219
 143:lib/BTT/src/Statistics.c ****       
 681              		.loc 1 143 9 view .LVU220
 682              	.LBB82:
 683              	.LBI82:
 161:lib/BTT/src/Statistics.c **** {
 684              		.loc 1 161 16 view .LVU221
 685              	.LBB83:
 163:lib/BTT/src/Statistics.c ****     {
 686              		.loc 1 163 3 view .LVU222
 165:lib/BTT/src/Statistics.c ****         free(self->past_samples);
 687              		.loc 1 165 7 view .LVU223
 166:lib/BTT/src/Statistics.c ****         
 688              		.loc 1 166 9 view .LVU224
 689 005c 3046     		mov	r0, r6
 690 005e FFF7FEFF 		bl	free
 691              	.LVL40:
 168:lib/BTT/src/Statistics.c ****       
 692              		.loc 1 168 7 view .LVU225
 168:lib/BTT/src/Statistics.c ****       
 693              		.loc 1 168 7 is_stmt 0 view .LVU226
 694              	.LBE83:
 695              	.LBE82:
  58:lib/BTT/src/Statistics.c ****     {
 696              		.loc 1 58 3 is_stmt 1 view .LVU227
  62:lib/BTT/src/Statistics.c **** }
 697              		.loc 1 62 3 view .LVU228
 698              	.LBB86:
 699              	.LBB84:
 170:lib/BTT/src/Statistics.c ****     }
 700              		.loc 1 170 7 view .LVU229
 701 0062 2046     		mov	r0, r4
 702              	.LBE84:
 703              	.LBE86:
 143:lib/BTT/src/Statistics.c ****       
 704              		.loc 1 143 16 is_stmt 0 view .LVU230
 705 0064 2C46     		mov	r4, r5
 706              	.LVL41:
 707              	.LBB87:
 708              	.LBB85:
 170:lib/BTT/src/Statistics.c ****     }
 709              		.loc 1 170 7 view .LVU231
 710 0066 FFF7FEFF 		bl	free
 711              	.LVL42:
 172:lib/BTT/src/Statistics.c **** }
 712              		.loc 1 172 3 is_stmt 1 view .LVU232
 172:lib/BTT/src/Statistics.c **** }
 713              		.loc 1 172 3 is_stmt 0 view .LVU233
 714              	.LBE85:
 715              	.LBE87:
 148:lib/BTT/src/Statistics.c **** 
 716              		.loc 1 148 1 view .LVU234
 717 006a 2046     		mov	r0, r4
 718 006c 70BD     		pop	{r4, r5, r6, pc}
ARM GAS  /var/folders/lw/_hmdf9396f92znj902yw3qj00000gn/T//ccbdwRJx.s 			page 19


 719              	.LVL43:
 720              	.L61:
 139:lib/BTT/src/Statistics.c ****       
 721              		.loc 1 139 9 is_stmt 1 view .LVU235
 139:lib/BTT/src/Statistics.c ****       
 722              		.loc 1 139 16 is_stmt 0 view .LVU236
 723 006e 2046     		mov	r0, r4
 148:lib/BTT/src/Statistics.c **** 
 724              		.loc 1 148 1 view .LVU237
 725 0070 BDE87040 		pop	{r4, r5, r6, lr}
 726              		.cfi_restore 14
 727              		.cfi_restore 6
 728              		.cfi_restore 5
 729              		.cfi_restore 4
 730              		.cfi_def_cfa_offset 0
 731              	.LVL44:
 139:lib/BTT/src/Statistics.c ****       
 732              		.loc 1 139 16 view .LVU238
 733 0074 FFF7FEBF 		b	moving_average_destroy
 734              	.LVL45:
 139:lib/BTT/src/Statistics.c ****       
 735              		.loc 1 139 16 view .LVU239
 736              		.cfi_endproc
 737              	.LFE328:
 739              		.section	.text.moving_average_N,"ax",%progbits
 740              		.align	1
 741              		.p2align 2,,3
 742              		.global	moving_average_N
 743              		.syntax unified
 744              		.thumb
 745              		.thumb_func
 747              	moving_average_N:
 748              	.LVL46:
 749              	.LFB331:
 174:lib/BTT/src/Statistics.c **** 
 175:lib/BTT/src/Statistics.c **** /*--------------------------------------------------------------------*/
 176:lib/BTT/src/Statistics.c **** int moving_average_N(MovingAverage* self)
 177:lib/BTT/src/Statistics.c **** {
 750              		.loc 1 177 1 is_stmt 1 view -0
 751              		.cfi_startproc
 752              		@ args = 0, pretend = 0, frame = 0
 753              		@ frame_needed = 0, uses_anonymous_args = 0
 754              		@ link register save eliminated.
 178:lib/BTT/src/Statistics.c ****   return self->N;
 755              		.loc 1 178 3 view .LVU241
 179:lib/BTT/src/Statistics.c **** }
 756              		.loc 1 179 1 is_stmt 0 view .LVU242
 757 0000 0068     		ldr	r0, [r0]
 758              	.LVL47:
 759              		.loc 1 179 1 view .LVU243
 760 0002 7047     		bx	lr
 761              		.cfi_endproc
 762              	.LFE331:
 764              		.section	.text.moving_average_n,"ax",%progbits
 765              		.align	1
 766              		.p2align 2,,3
 767              		.global	moving_average_n
ARM GAS  /var/folders/lw/_hmdf9396f92znj902yw3qj00000gn/T//ccbdwRJx.s 			page 20


 768              		.syntax unified
 769              		.thumb
 770              		.thumb_func
 772              	moving_average_n:
 773              	.LVL48:
 774              	.LFB332:
 180:lib/BTT/src/Statistics.c **** 
 181:lib/BTT/src/Statistics.c **** /*--------------------------------------------------------------------*/
 182:lib/BTT/src/Statistics.c **** int moving_average_n(MovingAverage* self)
 183:lib/BTT/src/Statistics.c **** {
 775              		.loc 1 183 1 is_stmt 1 view -0
 776              		.cfi_startproc
 777              		@ args = 0, pretend = 0, frame = 0
 778              		@ frame_needed = 0, uses_anonymous_args = 0
 779              		@ link register save eliminated.
 184:lib/BTT/src/Statistics.c ****   return online_average_n(self->online);
 780              		.loc 1 184 3 view .LVU245
 781              	.LBB88:
 782              	.LBI88:
  66:lib/BTT/src/Statistics.c **** {
 783              		.loc 1 66 5 view .LVU246
 784              	.LBB89:
  68:lib/BTT/src/Statistics.c **** }
 785              		.loc 1 68 3 view .LVU247
  68:lib/BTT/src/Statistics.c **** }
 786              		.loc 1 68 14 is_stmt 0 view .LVU248
 787 0000 836A     		ldr	r3, [r0, #40]
 788              	.LBE89:
 789              	.LBE88:
 185:lib/BTT/src/Statistics.c **** }
 790              		.loc 1 185 1 view .LVU249
 791 0002 1868     		ldr	r0, [r3]
 792              	.LVL49:
 793              		.loc 1 185 1 view .LVU250
 794 0004 7047     		bx	lr
 795              		.cfi_endproc
 796              	.LFE332:
 798 0006 00BF     		.section	.text.moving_average_mean,"ax",%progbits
 799              		.align	1
 800              		.p2align 2,,3
 801              		.global	moving_average_mean
 802              		.syntax unified
 803              		.thumb
 804              		.thumb_func
 806              	moving_average_mean:
 807              	.LVL50:
 808              	.LFB333:
 186:lib/BTT/src/Statistics.c **** 
 187:lib/BTT/src/Statistics.c **** /*--------------------------------------------------------------------*/
 188:lib/BTT/src/Statistics.c **** double     moving_average_mean(MovingAverage* self)
 189:lib/BTT/src/Statistics.c **** {
 809              		.loc 1 189 1 is_stmt 1 view -0
 810              		.cfi_startproc
 811              		@ args = 0, pretend = 0, frame = 0
 812              		@ frame_needed = 0, uses_anonymous_args = 0
 813              		@ link register save eliminated.
 190:lib/BTT/src/Statistics.c ****   return self->mean;
ARM GAS  /var/folders/lw/_hmdf9396f92znj902yw3qj00000gn/T//ccbdwRJx.s 			page 21


 814              		.loc 1 190 3 view .LVU252
 191:lib/BTT/src/Statistics.c **** }
 815              		.loc 1 191 1 is_stmt 0 view .LVU253
 816 0000 90ED020B 		vldr.64	d0, [r0, #8]
 817 0004 7047     		bx	lr
 818              		.cfi_endproc
 819              	.LFE333:
 821 0006 00BF     		.section	.text.moving_average_variance,"ax",%progbits
 822              		.align	1
 823              		.p2align 2,,3
 824              		.global	moving_average_variance
 825              		.syntax unified
 826              		.thumb
 827              		.thumb_func
 829              	moving_average_variance:
 830              	.LVL51:
 831              	.LFB334:
 192:lib/BTT/src/Statistics.c **** 
 193:lib/BTT/src/Statistics.c **** /*--------------------------------------------------------------------*/
 194:lib/BTT/src/Statistics.c **** double     moving_average_variance(MovingAverage* self)
 195:lib/BTT/src/Statistics.c **** {
 832              		.loc 1 195 1 is_stmt 1 view -0
 833              		.cfi_startproc
 834              		@ args = 0, pretend = 0, frame = 0
 835              		@ frame_needed = 0, uses_anonymous_args = 0
 836              		@ link register save eliminated.
 196:lib/BTT/src/Statistics.c ****   return self->variance;
 837              		.loc 1 196 3 view .LVU255
 197:lib/BTT/src/Statistics.c **** }
 838              		.loc 1 197 1 is_stmt 0 view .LVU256
 839 0000 90ED040B 		vldr.64	d0, [r0, #16]
 840 0004 7047     		bx	lr
 841              		.cfi_endproc
 842              	.LFE334:
 844 0006 00BF     		.section	.text.moving_average_std_dev,"ax",%progbits
 845              		.align	1
 846              		.p2align 2,,3
 847              		.global	moving_average_std_dev
 848              		.syntax unified
 849              		.thumb
 850              		.thumb_func
 852              	moving_average_std_dev:
 853              	.LVL52:
 854              	.LFB335:
 198:lib/BTT/src/Statistics.c **** 
 199:lib/BTT/src/Statistics.c **** /*--------------------------------------------------------------------*/
 200:lib/BTT/src/Statistics.c **** double     moving_average_std_dev(MovingAverage* self)
 201:lib/BTT/src/Statistics.c **** {
 855              		.loc 1 201 1 is_stmt 1 view -0
 856              		.cfi_startproc
 857              		@ args = 0, pretend = 0, frame = 0
 858              		@ frame_needed = 0, uses_anonymous_args = 0
 859              		@ link register save eliminated.
 202:lib/BTT/src/Statistics.c ****   return sqrt(self->variance);
 860              		.loc 1 202 3 view .LVU258
 861              		.loc 1 202 10 is_stmt 0 view .LVU259
 862 0000 90ED047B 		vldr.64	d7, [r0, #16]
ARM GAS  /var/folders/lw/_hmdf9396f92znj902yw3qj00000gn/T//ccbdwRJx.s 			page 22


 863 0004 B5EE407B 		vcmp.f64	d7, #0
 864 0008 F1EE10FA 		vmrs	APSR_nzcv, FPSCR
 865 000c 02D4     		bmi	.L74
 866 000e B1EEC70B 		vsqrt.f64	d0, d7
 203:lib/BTT/src/Statistics.c **** }
 867              		.loc 1 203 1 view .LVU260
 868 0012 7047     		bx	lr
 869              	.L74:
 202:lib/BTT/src/Statistics.c ****   return sqrt(self->variance);
 870              		.loc 1 202 10 view .LVU261
 871 0014 B0EE470B 		vmov.f64	d0, d7
 872 0018 FFF7FEBF 		b	sqrt
 873              	.LVL53:
 202:lib/BTT/src/Statistics.c ****   return sqrt(self->variance);
 874              		.loc 1 202 10 view .LVU262
 875              		.cfi_endproc
 876              	.LFE335:
 878              		.section	.text.moving_average_update,"ax",%progbits
 879              		.align	1
 880              		.p2align 2,,3
 881              		.global	moving_average_update
 882              		.syntax unified
 883              		.thumb
 884              		.thumb_func
 886              	moving_average_update:
 887              	.LVL54:
 888              	.LFB336:
 204:lib/BTT/src/Statistics.c **** /*--------------------------------------------------------------------*/
 205:lib/BTT/src/Statistics.c **** void moving_average_update(MovingAverage* self, double     x)
 206:lib/BTT/src/Statistics.c **** {
 889              		.loc 1 206 1 is_stmt 1 view -0
 890              		.cfi_startproc
 891              		@ args = 0, pretend = 0, frame = 0
 892              		@ frame_needed = 0, uses_anonymous_args = 0
 207:lib/BTT/src/Statistics.c ****   double     new_mean;
 893              		.loc 1 207 3 view .LVU264
 208:lib/BTT/src/Statistics.c ****   double     oldest_sample = self->past_samples[self->current_sample_index];
 894              		.loc 1 208 3 view .LVU265
 206:lib/BTT/src/Statistics.c ****   double     new_mean;
 895              		.loc 1 206 1 is_stmt 0 view .LVU266
 896 0000 0146     		mov	r1, r0
 897              		.loc 1 208 53 view .LVU267
 898 0002 C069     		ldr	r0, [r0, #28]
 899              	.LVL55:
 900              		.loc 1 208 48 view .LVU268
 901 0004 8A69     		ldr	r2, [r1, #24]
 209:lib/BTT/src/Statistics.c ****   
 210:lib/BTT/src/Statistics.c ****   self->past_samples[self->current_sample_index] = x;
 211:lib/BTT/src/Statistics.c ****   ++self->current_sample_index;
 902              		.loc 1 211 3 view .LVU269
 903 0006 431C     		adds	r3, r0, #1
 208:lib/BTT/src/Statistics.c ****   
 904              		.loc 1 208 48 view .LVU270
 905 0008 02EBC002 		add	r2, r2, r0, lsl #3
 212:lib/BTT/src/Statistics.c ****   self->current_sample_index %= self->N;
 213:lib/BTT/src/Statistics.c **** 
 214:lib/BTT/src/Statistics.c ****   if(online_average_n(self->online) < self->N)
ARM GAS  /var/folders/lw/_hmdf9396f92znj902yw3qj00000gn/T//ccbdwRJx.s 			page 23


 906              		.loc 1 214 6 view .LVU271
 907 000c 886A     		ldr	r0, [r1, #40]
 206:lib/BTT/src/Statistics.c ****   double     new_mean;
 908              		.loc 1 206 1 view .LVU272
 909 000e 10B5     		push	{r4, lr}
 910              		.cfi_def_cfa_offset 8
 911              		.cfi_offset 4, -8
 912              		.cfi_offset 14, -4
 212:lib/BTT/src/Statistics.c ****   self->current_sample_index %= self->N;
 913              		.loc 1 212 37 view .LVU273
 914 0010 0C68     		ldr	r4, [r1]
 208:lib/BTT/src/Statistics.c ****   
 915              		.loc 1 208 14 view .LVU274
 916 0012 92ED006B 		vldr.64	d6, [r2]
 917              	.LVL56:
 210:lib/BTT/src/Statistics.c ****   ++self->current_sample_index;
 918              		.loc 1 210 3 is_stmt 1 view .LVU275
 210:lib/BTT/src/Statistics.c ****   ++self->current_sample_index;
 919              		.loc 1 210 50 is_stmt 0 view .LVU276
 920 0016 82ED000B 		vstr.64	d0, [r2]
 211:lib/BTT/src/Statistics.c ****   self->current_sample_index %= self->N;
 921              		.loc 1 211 3 is_stmt 1 view .LVU277
 212:lib/BTT/src/Statistics.c **** 
 922              		.loc 1 212 3 view .LVU278
 212:lib/BTT/src/Statistics.c **** 
 923              		.loc 1 212 30 is_stmt 0 view .LVU279
 924 001a B3FBF4F2 		udiv	r2, r3, r4
 925 001e 04FB1233 		mls	r3, r4, r2, r3
 926 0022 CB61     		str	r3, [r1, #28]
 927              		.loc 1 214 3 is_stmt 1 view .LVU280
 928              	.LVL57:
 929              	.LBB90:
 930              	.LBI90:
  66:lib/BTT/src/Statistics.c **** {
 931              		.loc 1 66 5 view .LVU281
 932              	.LBB91:
  68:lib/BTT/src/Statistics.c **** }
 933              		.loc 1 68 3 view .LVU282
  68:lib/BTT/src/Statistics.c **** }
 934              		.loc 1 68 3 is_stmt 0 view .LVU283
 935              	.LBE91:
 936              	.LBE90:
 937              		.loc 1 214 5 view .LVU284
 938 0024 0368     		ldr	r3, [r0]
 939 0026 9C42     		cmp	r4, r3
 940 0028 1ED8     		bhi	.L79
 215:lib/BTT/src/Statistics.c ****     {
 216:lib/BTT/src/Statistics.c ****       online_average_update(self->online, x);
 217:lib/BTT/src/Statistics.c ****       self->variance = online_average_variance(self->online);
 218:lib/BTT/src/Statistics.c ****       self->mean     = online_average_mean(self->online);
 219:lib/BTT/src/Statistics.c ****       self->s        = self->variance * self->N;
 220:lib/BTT/src/Statistics.c ****     }
 221:lib/BTT/src/Statistics.c ****   else
 222:lib/BTT/src/Statistics.c ****     {
 223:lib/BTT/src/Statistics.c ****       new_mean       = self->mean + (x - oldest_sample) / self->N;
 941              		.loc 1 223 7 is_stmt 1 view .LVU285
 942              		.loc 1 223 57 is_stmt 0 view .LVU286
ARM GAS  /var/folders/lw/_hmdf9396f92znj902yw3qj00000gn/T//ccbdwRJx.s 			page 24


 943 002a 07EE904A 		vmov	s15, r4	@ int
 944              		.loc 1 223 40 view .LVU287
 945 002e 30EE463B 		vsub.f64	d3, d0, d6
 224:lib/BTT/src/Statistics.c ****       self->s       += (x + oldest_sample - self->mean - new_mean) * (x - oldest_sample);
 946              		.loc 1 224 27 view .LVU288
 947 0032 36EE006B 		vadd.f64	d6, d6, d0
 948              	.LVL58:
 223:lib/BTT/src/Statistics.c ****       self->s       += (x + oldest_sample - self->mean - new_mean) * (x - oldest_sample);
 949              		.loc 1 223 57 view .LVU289
 950 0036 B8EE677B 		vcvt.f64.u32	d7, s15
 223:lib/BTT/src/Statistics.c ****       self->s       += (x + oldest_sample - self->mean - new_mean) * (x - oldest_sample);
 951              		.loc 1 223 28 view .LVU290
 952 003a 91ED022B 		vldr.64	d2, [r1, #8]
 223:lib/BTT/src/Statistics.c ****       self->s       += (x + oldest_sample - self->mean - new_mean) * (x - oldest_sample);
 953              		.loc 1 223 57 view .LVU291
 954 003e 83EE074B 		vdiv.f64	d4, d3, d7
 955              		.loc 1 224 43 view .LVU292
 956 0042 36EE426B 		vsub.f64	d6, d6, d2
 957              		.loc 1 224 21 view .LVU293
 958 0046 91ED085B 		vldr.64	d5, [r1, #32]
 223:lib/BTT/src/Statistics.c ****       self->s       += (x + oldest_sample - self->mean - new_mean) * (x - oldest_sample);
 959              		.loc 1 223 22 view .LVU294
 960 004a 34EE024B 		vadd.f64	d4, d4, d2
 961              	.LVL59:
 962              		.loc 1 224 7 is_stmt 1 view .LVU295
 963              		.loc 1 224 56 is_stmt 0 view .LVU296
 964 004e 36EE446B 		vsub.f64	d6, d6, d4
 225:lib/BTT/src/Statistics.c ****       self->variance = self->s / self->N;
 226:lib/BTT/src/Statistics.c ****       self->mean     = new_mean;
 965              		.loc 1 226 22 view .LVU297
 966 0052 81ED024B 		vstr.64	d4, [r1, #8]
 224:lib/BTT/src/Statistics.c ****       self->variance = self->s / self->N;
 967              		.loc 1 224 21 view .LVU298
 968 0056 A3EE065B 		vfma.f64	d5, d3, d6
 225:lib/BTT/src/Statistics.c ****       self->variance = self->s / self->N;
 969              		.loc 1 225 32 view .LVU299
 970 005a 85EE076B 		vdiv.f64	d6, d5, d7
 224:lib/BTT/src/Statistics.c ****       self->variance = self->s / self->N;
 971              		.loc 1 224 21 view .LVU300
 972 005e 81ED085B 		vstr.64	d5, [r1, #32]
 225:lib/BTT/src/Statistics.c ****       self->variance = self->s / self->N;
 973              		.loc 1 225 7 is_stmt 1 view .LVU301
 225:lib/BTT/src/Statistics.c ****       self->variance = self->s / self->N;
 974              		.loc 1 225 22 is_stmt 0 view .LVU302
 975 0062 81ED046B 		vstr.64	d6, [r1, #16]
 976              		.loc 1 226 7 is_stmt 1 view .LVU303
 227:lib/BTT/src/Statistics.c ****     }
 228:lib/BTT/src/Statistics.c **** };
 977              		.loc 1 228 1 is_stmt 0 view .LVU304
 978 0066 10BD     		pop	{r4, pc}
 979              	.LVL60:
 980              	.L79:
 216:lib/BTT/src/Statistics.c ****       self->variance = online_average_variance(self->online);
 981              		.loc 1 216 7 is_stmt 1 view .LVU305
 982 0068 FFF7FEFF 		bl	online_average_update
 983              	.LVL61:
 217:lib/BTT/src/Statistics.c ****       self->mean     = online_average_mean(self->online);
ARM GAS  /var/folders/lw/_hmdf9396f92znj902yw3qj00000gn/T//ccbdwRJx.s 			page 25


 984              		.loc 1 217 7 view .LVU306
 217:lib/BTT/src/Statistics.c ****       self->mean     = online_average_mean(self->online);
 985              		.loc 1 217 24 is_stmt 0 view .LVU307
 986 006c 8B6A     		ldr	r3, [r1, #40]
 987              	.LVL62:
 988              	.LBB92:
 989              	.LBI92:
  78:lib/BTT/src/Statistics.c **** {
 990              		.loc 1 78 12 is_stmt 1 view .LVU308
 991              	.LBB93:
  80:lib/BTT/src/Statistics.c **** }
 992              		.loc 1 80 3 view .LVU309
 993              	.LBE93:
 994              	.LBE92:
 219:lib/BTT/src/Statistics.c ****     }
 995              		.loc 1 219 39 is_stmt 0 view .LVU310
 996 006e D1ED007A 		vldr.32	s15, [r1]	@ int
 997              	.LBB95:
 998              	.LBB94:
  80:lib/BTT/src/Statistics.c **** }
 999              		.loc 1 80 14 view .LVU311
 1000 0072 93ED046B 		vldr.64	d6, [r3, #16]
 1001              	.LVL63:
  80:lib/BTT/src/Statistics.c **** }
 1002              		.loc 1 80 14 view .LVU312
 1003              	.LBE94:
 1004              	.LBE95:
 219:lib/BTT/src/Statistics.c ****     }
 1005              		.loc 1 219 39 view .LVU313
 1006 0076 B8EE677B 		vcvt.f64.u32	d7, s15
 218:lib/BTT/src/Statistics.c ****       self->s        = self->variance * self->N;
 1007              		.loc 1 218 22 view .LVU314
 1008 007a D3E90223 		ldrd	r2, [r3, #8]
 219:lib/BTT/src/Statistics.c ****     }
 1009              		.loc 1 219 39 view .LVU315
 1010 007e 27EE067B 		vmul.f64	d7, d7, d6
 217:lib/BTT/src/Statistics.c ****       self->mean     = online_average_mean(self->online);
 1011              		.loc 1 217 22 view .LVU316
 1012 0082 81ED046B 		vstr.64	d6, [r1, #16]
 218:lib/BTT/src/Statistics.c ****       self->s        = self->variance * self->N;
 1013              		.loc 1 218 7 is_stmt 1 view .LVU317
 1014              	.LVL64:
 1015              	.LBB96:
 1016              	.LBI96:
  72:lib/BTT/src/Statistics.c **** {
 1017              		.loc 1 72 12 view .LVU318
 1018              	.LBB97:
  74:lib/BTT/src/Statistics.c **** }
 1019              		.loc 1 74 3 view .LVU319
  74:lib/BTT/src/Statistics.c **** }
 1020              		.loc 1 74 3 is_stmt 0 view .LVU320
 1021              	.LBE97:
 1022              	.LBE96:
 218:lib/BTT/src/Statistics.c ****       self->s        = self->variance * self->N;
 1023              		.loc 1 218 22 view .LVU321
 1024 0086 C1E90223 		strd	r2, [r1, #8]
 219:lib/BTT/src/Statistics.c ****     }
ARM GAS  /var/folders/lw/_hmdf9396f92znj902yw3qj00000gn/T//ccbdwRJx.s 			page 26


 1025              		.loc 1 219 7 is_stmt 1 view .LVU322
 219:lib/BTT/src/Statistics.c ****     }
 1026              		.loc 1 219 22 is_stmt 0 view .LVU323
 1027 008a 81ED087B 		vstr.64	d7, [r1, #32]
 1028              		.loc 1 228 1 view .LVU324
 1029 008e 10BD     		pop	{r4, pc}
 1030              		.cfi_endproc
 1031              	.LFE336:
 1033              		.section	.text.online_regression_new,"ax",%progbits
 1034              		.align	1
 1035              		.p2align 2,,3
 1036              		.global	online_regression_new
 1037              		.syntax unified
 1038              		.thumb
 1039              		.thumb_func
 1041              	online_regression_new:
 1042              	.LFB337:
 229:lib/BTT/src/Statistics.c **** 
 230:lib/BTT/src/Statistics.c **** /*--------------------------------------------------------------------*/
 231:lib/BTT/src/Statistics.c **** /*--___-------_-_------------___------------------------_---------------
 232:lib/BTT/src/Statistics.c ****    / _ \ _ _ | (_)_ _  ___  | _ \___ __ _ _ _ ___ _____(_)___ _ _  
 233:lib/BTT/src/Statistics.c ****   | (_) | ' \| | | ' \/ -_) |   / -_) _` | '_/ -_|_-<_-< / _ \ ' \ 
 234:lib/BTT/src/Statistics.c ****    \___/|_||_|_|_|_||_\___| |_|_\___\__, |_| \___/__/__/_\___/_||_|
 235:lib/BTT/src/Statistics.c **** ------------------------------------|___/-------------------------------
 236:lib/BTT/src/Statistics.c ****   Calculate the means, variances, covariance, slope, y-intercept and 
 237:lib/BTT/src/Statistics.c ****   correlation coeficient of two signals. This is an online algorithm
 238:lib/BTT/src/Statistics.c ****   that operates one sample at a time.
 239:lib/BTT/src/Statistics.c **** ----------------------------------------------------------------------*/
 240:lib/BTT/src/Statistics.c **** struct opaque_online_regression_struct
 241:lib/BTT/src/Statistics.c **** {
 242:lib/BTT/src/Statistics.c ****   unsigned     n         ;
 243:lib/BTT/src/Statistics.c ****   double       a_mean    ;
 244:lib/BTT/src/Statistics.c ****   double       b_mean    ;
 245:lib/BTT/src/Statistics.c ****   double       a_variance;
 246:lib/BTT/src/Statistics.c ****   double       b_variance;
 247:lib/BTT/src/Statistics.c ****   double       covariance;
 248:lib/BTT/src/Statistics.c ****   
 249:lib/BTT/src/Statistics.c ****   //slope, y-intercept, correlation
 250:lib/BTT/src/Statistics.c ****   double       m         ;
 251:lib/BTT/src/Statistics.c ****   double       b         ;
 252:lib/BTT/src/Statistics.c ****   double       r_2       ;
 253:lib/BTT/src/Statistics.c **** };
 254:lib/BTT/src/Statistics.c **** 
 255:lib/BTT/src/Statistics.c **** /*--------------------------------------------------------------------*/
 256:lib/BTT/src/Statistics.c **** OnlineRegression* online_regression_new()
 257:lib/BTT/src/Statistics.c **** {
 1043              		.loc 1 257 1 is_stmt 1 view -0
 1044              		.cfi_startproc
 1045              		@ args = 0, pretend = 0, frame = 0
 1046              		@ frame_needed = 0, uses_anonymous_args = 0
 258:lib/BTT/src/Statistics.c ****   OnlineRegression* self = calloc(1, sizeof(*self));
 1047              		.loc 1 258 3 view .LVU326
 257:lib/BTT/src/Statistics.c ****   OnlineRegression* self = calloc(1, sizeof(*self));
 1048              		.loc 1 257 1 is_stmt 0 view .LVU327
 1049 0000 08B5     		push	{r3, lr}
 1050              		.cfi_def_cfa_offset 8
 1051              		.cfi_offset 3, -8
ARM GAS  /var/folders/lw/_hmdf9396f92znj902yw3qj00000gn/T//ccbdwRJx.s 			page 27


 1052              		.cfi_offset 14, -4
 1053              		.loc 1 258 28 view .LVU328
 1054 0002 4821     		movs	r1, #72
 1055 0004 0120     		movs	r0, #1
 1056 0006 FFF7FEFF 		bl	calloc
 1057              	.LVL65:
 259:lib/BTT/src/Statistics.c ****   if(self != NULL)
 1058              		.loc 1 259 3 is_stmt 1 view .LVU329
 1059              		.loc 1 259 5 is_stmt 0 view .LVU330
 1060 000a 88B1     		cbz	r0, .L80
 260:lib/BTT/src/Statistics.c ****     {
 261:lib/BTT/src/Statistics.c ****       online_regression_init(self);
 1061              		.loc 1 261 7 is_stmt 1 view .LVU331
 1062              	.LVL66:
 1063              	.LBB100:
 1064              	.LBI100:
 262:lib/BTT/src/Statistics.c ****     }
 263:lib/BTT/src/Statistics.c ****   return self;
 264:lib/BTT/src/Statistics.c **** }
 265:lib/BTT/src/Statistics.c **** 
 266:lib/BTT/src/Statistics.c **** /*--------------------------------------------------------------------*/
 267:lib/BTT/src/Statistics.c **** void online_regression_init(OnlineRegression* self)
 1065              		.loc 1 267 6 view .LVU332
 1066              	.LBB101:
 268:lib/BTT/src/Statistics.c **** {
 269:lib/BTT/src/Statistics.c ****   self->n          = 0;
 1067              		.loc 1 269 3 view .LVU333
 270:lib/BTT/src/Statistics.c ****   self->a_mean     = 0;
 1068              		.loc 1 270 3 view .LVU334
 271:lib/BTT/src/Statistics.c ****   self->b_mean     = 0;
 1069              		.loc 1 271 3 view .LVU335
 272:lib/BTT/src/Statistics.c ****   self->a_variance = 0;
 273:lib/BTT/src/Statistics.c ****   self->b_variance = 0;
 274:lib/BTT/src/Statistics.c ****   self->covariance = 0;
 275:lib/BTT/src/Statistics.c ****   self->m          = 1;
 1070              		.loc 1 275 20 is_stmt 0 view .LVU336
 1071 000c B7EE007B 		vmov.f64	d7, #1.0e+0
 271:lib/BTT/src/Statistics.c ****   self->b_mean     = 0;
 1072              		.loc 1 271 20 view .LVU337
 1073 0010 0022     		movs	r2, #0
 1074 0012 0023     		movs	r3, #0
 1075              		.loc 1 275 20 view .LVU338
 1076 0014 80ED0C7B 		vstr.64	d7, [r0, #48]
 271:lib/BTT/src/Statistics.c ****   self->b_mean     = 0;
 1077              		.loc 1 271 20 view .LVU339
 1078 0018 C0E90423 		strd	r2, [r0, #16]
 272:lib/BTT/src/Statistics.c ****   self->a_variance = 0;
 1079              		.loc 1 272 3 is_stmt 1 view .LVU340
 272:lib/BTT/src/Statistics.c ****   self->a_variance = 0;
 1080              		.loc 1 272 20 is_stmt 0 view .LVU341
 1081 001c C0E90623 		strd	r2, [r0, #24]
 273:lib/BTT/src/Statistics.c ****   self->covariance = 0;
 1082              		.loc 1 273 3 is_stmt 1 view .LVU342
 273:lib/BTT/src/Statistics.c ****   self->covariance = 0;
 1083              		.loc 1 273 20 is_stmt 0 view .LVU343
 1084 0020 C0E90823 		strd	r2, [r0, #32]
 274:lib/BTT/src/Statistics.c ****   self->m          = 1;
ARM GAS  /var/folders/lw/_hmdf9396f92znj902yw3qj00000gn/T//ccbdwRJx.s 			page 28


 1085              		.loc 1 274 3 is_stmt 1 view .LVU344
 274:lib/BTT/src/Statistics.c ****   self->m          = 1;
 1086              		.loc 1 274 20 is_stmt 0 view .LVU345
 1087 0024 C0E90A23 		strd	r2, [r0, #40]
 1088              		.loc 1 275 3 is_stmt 1 view .LVU346
 276:lib/BTT/src/Statistics.c ****   self->b          = 0;
 1089              		.loc 1 276 3 view .LVU347
 1090              		.loc 1 276 20 is_stmt 0 view .LVU348
 1091 0028 C0E90E23 		strd	r2, [r0, #56]
 277:lib/BTT/src/Statistics.c ****   self->r_2        = 0;
 1092              		.loc 1 277 3 is_stmt 1 view .LVU349
 1093              		.loc 1 277 20 is_stmt 0 view .LVU350
 1094 002c C0E91023 		strd	r2, [r0, #64]
 1095              	.LVL67:
 1096              		.loc 1 277 20 view .LVU351
 1097              	.LBE101:
 1098              	.LBE100:
 263:lib/BTT/src/Statistics.c **** }
 1099              		.loc 1 263 3 is_stmt 1 view .LVU352
 1100              	.L80:
 264:lib/BTT/src/Statistics.c **** 
 1101              		.loc 1 264 1 is_stmt 0 view .LVU353
 1102 0030 08BD     		pop	{r3, pc}
 1103              		.cfi_endproc
 1104              	.LFE337:
 1106 0032 00BF     		.section	.text.online_regression_init,"ax",%progbits
 1107              		.align	1
 1108              		.p2align 2,,3
 1109              		.global	online_regression_init
 1110              		.syntax unified
 1111              		.thumb
 1112              		.thumb_func
 1114              	online_regression_init:
 1115              	.LVL68:
 1116              	.LFB338:
 268:lib/BTT/src/Statistics.c ****   self->n          = 0;
 1117              		.loc 1 268 1 is_stmt 1 view -0
 1118              		.cfi_startproc
 1119              		@ args = 0, pretend = 0, frame = 0
 1120              		@ frame_needed = 0, uses_anonymous_args = 0
 1121              		@ link register save eliminated.
 269:lib/BTT/src/Statistics.c ****   self->a_mean     = 0;
 1122              		.loc 1 269 3 view .LVU355
 275:lib/BTT/src/Statistics.c ****   self->b          = 0;
 1123              		.loc 1 275 20 is_stmt 0 view .LVU356
 1124 0000 B7EE007B 		vmov.f64	d7, #1.0e+0
 270:lib/BTT/src/Statistics.c ****   self->b_mean     = 0;
 1125              		.loc 1 270 20 view .LVU357
 1126 0004 0022     		movs	r2, #0
 1127 0006 0023     		movs	r3, #0
 269:lib/BTT/src/Statistics.c ****   self->a_mean     = 0;
 1128              		.loc 1 269 20 view .LVU358
 1129 0008 0021     		movs	r1, #0
 270:lib/BTT/src/Statistics.c ****   self->b_mean     = 0;
 1130              		.loc 1 270 20 view .LVU359
 1131 000a C0E90223 		strd	r2, [r0, #8]
 269:lib/BTT/src/Statistics.c ****   self->a_mean     = 0;
ARM GAS  /var/folders/lw/_hmdf9396f92znj902yw3qj00000gn/T//ccbdwRJx.s 			page 29


 1132              		.loc 1 269 20 view .LVU360
 1133 000e 0160     		str	r1, [r0]
 270:lib/BTT/src/Statistics.c ****   self->b_mean     = 0;
 1134              		.loc 1 270 3 is_stmt 1 view .LVU361
 271:lib/BTT/src/Statistics.c ****   self->a_variance = 0;
 1135              		.loc 1 271 3 view .LVU362
 271:lib/BTT/src/Statistics.c ****   self->a_variance = 0;
 1136              		.loc 1 271 20 is_stmt 0 view .LVU363
 1137 0010 C0E90423 		strd	r2, [r0, #16]
 272:lib/BTT/src/Statistics.c ****   self->b_variance = 0;
 1138              		.loc 1 272 3 is_stmt 1 view .LVU364
 272:lib/BTT/src/Statistics.c ****   self->b_variance = 0;
 1139              		.loc 1 272 20 is_stmt 0 view .LVU365
 1140 0014 C0E90623 		strd	r2, [r0, #24]
 273:lib/BTT/src/Statistics.c ****   self->covariance = 0;
 1141              		.loc 1 273 3 is_stmt 1 view .LVU366
 273:lib/BTT/src/Statistics.c ****   self->covariance = 0;
 1142              		.loc 1 273 20 is_stmt 0 view .LVU367
 1143 0018 C0E90823 		strd	r2, [r0, #32]
 274:lib/BTT/src/Statistics.c ****   self->m          = 1;
 1144              		.loc 1 274 3 is_stmt 1 view .LVU368
 274:lib/BTT/src/Statistics.c ****   self->m          = 1;
 1145              		.loc 1 274 20 is_stmt 0 view .LVU369
 1146 001c C0E90A23 		strd	r2, [r0, #40]
 275:lib/BTT/src/Statistics.c ****   self->b          = 0;
 1147              		.loc 1 275 3 is_stmt 1 view .LVU370
 275:lib/BTT/src/Statistics.c ****   self->b          = 0;
 1148              		.loc 1 275 20 is_stmt 0 view .LVU371
 1149 0020 80ED0C7B 		vstr.64	d7, [r0, #48]
 276:lib/BTT/src/Statistics.c ****   self->r_2        = 0;
 1150              		.loc 1 276 3 is_stmt 1 view .LVU372
 276:lib/BTT/src/Statistics.c ****   self->r_2        = 0;
 1151              		.loc 1 276 20 is_stmt 0 view .LVU373
 1152 0024 C0E90E23 		strd	r2, [r0, #56]
 1153              		.loc 1 277 3 is_stmt 1 view .LVU374
 1154              		.loc 1 277 20 is_stmt 0 view .LVU375
 1155 0028 C0E91023 		strd	r2, [r0, #64]
 278:lib/BTT/src/Statistics.c **** }
 1156              		.loc 1 278 1 view .LVU376
 1157 002c 7047     		bx	lr
 1158              		.cfi_endproc
 1159              	.LFE338:
 1161 002e 00BF     		.section	.text.online_regression_destroy,"ax",%progbits
 1162              		.align	1
 1163              		.p2align 2,,3
 1164              		.global	online_regression_destroy
 1165              		.syntax unified
 1166              		.thumb
 1167              		.thumb_func
 1169              	online_regression_destroy:
 1170              	.LFB365:
 1171              		.cfi_startproc
 1172              		@ args = 0, pretend = 0, frame = 0
 1173              		@ frame_needed = 0, uses_anonymous_args = 0
 1174 0000 20B1     		cbz	r0, .L93
 1175 0002 08B5     		push	{r3, lr}
 1176              		.cfi_def_cfa_offset 8
ARM GAS  /var/folders/lw/_hmdf9396f92znj902yw3qj00000gn/T//ccbdwRJx.s 			page 30


 1177              		.cfi_offset 3, -8
 1178              		.cfi_offset 14, -4
 1179 0004 FFF7FEFF 		bl	free
 1180 0008 0020     		movs	r0, #0
 1181 000a 08BD     		pop	{r3, pc}
 1182              	.L93:
 1183              		.cfi_def_cfa_offset 0
 1184              		.cfi_restore 3
 1185              		.cfi_restore 14
 1186 000c 0020     		movs	r0, #0
 1187 000e 7047     		bx	lr
 1188              		.cfi_endproc
 1189              	.LFE365:
 1191              		.section	.text.online_regression_n,"ax",%progbits
 1192              		.align	1
 1193              		.p2align 2,,3
 1194              		.global	online_regression_n
 1195              		.syntax unified
 1196              		.thumb
 1197              		.thumb_func
 1199              	online_regression_n:
 1200              	.LVL69:
 1201              	.LFB340:
 279:lib/BTT/src/Statistics.c **** 
 280:lib/BTT/src/Statistics.c **** /*--------------------------------------------------------------------*/
 281:lib/BTT/src/Statistics.c **** OnlineRegression* online_regression_destroy(OnlineRegression* self)
 282:lib/BTT/src/Statistics.c **** {
 283:lib/BTT/src/Statistics.c ****   if(self != NULL)
 284:lib/BTT/src/Statistics.c ****     {
 285:lib/BTT/src/Statistics.c ****       free(self);
 286:lib/BTT/src/Statistics.c ****     }
 287:lib/BTT/src/Statistics.c ****   return (OnlineRegression*) NULL;
 288:lib/BTT/src/Statistics.c **** }
 289:lib/BTT/src/Statistics.c **** 
 290:lib/BTT/src/Statistics.c **** /*--------------------------------------------------------------------*/
 291:lib/BTT/src/Statistics.c **** int online_regression_n(OnlineRegression* self)
 292:lib/BTT/src/Statistics.c **** {
 1202              		.loc 1 292 1 is_stmt 1 view -0
 1203              		.cfi_startproc
 1204              		@ args = 0, pretend = 0, frame = 0
 1205              		@ frame_needed = 0, uses_anonymous_args = 0
 1206              		@ link register save eliminated.
 293:lib/BTT/src/Statistics.c ****   return self->n;
 1207              		.loc 1 293 3 view .LVU378
 294:lib/BTT/src/Statistics.c **** }
 1208              		.loc 1 294 1 is_stmt 0 view .LVU379
 1209 0000 0068     		ldr	r0, [r0]
 1210              	.LVL70:
 1211              		.loc 1 294 1 view .LVU380
 1212 0002 7047     		bx	lr
 1213              		.cfi_endproc
 1214              	.LFE340:
 1216              		.section	.text.online_regression_covariance,"ax",%progbits
 1217              		.align	1
 1218              		.p2align 2,,3
 1219              		.global	online_regression_covariance
 1220              		.syntax unified
ARM GAS  /var/folders/lw/_hmdf9396f92znj902yw3qj00000gn/T//ccbdwRJx.s 			page 31


 1221              		.thumb
 1222              		.thumb_func
 1224              	online_regression_covariance:
 1225              	.LVL71:
 1226              	.LFB341:
 295:lib/BTT/src/Statistics.c **** 
 296:lib/BTT/src/Statistics.c **** /*--------------------------------------------------------------------*/
 297:lib/BTT/src/Statistics.c **** double     online_regression_covariance(OnlineRegression* self)
 298:lib/BTT/src/Statistics.c **** {
 1227              		.loc 1 298 1 is_stmt 1 view -0
 1228              		.cfi_startproc
 1229              		@ args = 0, pretend = 0, frame = 0
 1230              		@ frame_needed = 0, uses_anonymous_args = 0
 1231              		@ link register save eliminated.
 299:lib/BTT/src/Statistics.c ****   return self->covariance;
 1232              		.loc 1 299 3 view .LVU382
 300:lib/BTT/src/Statistics.c **** }
 1233              		.loc 1 300 1 is_stmt 0 view .LVU383
 1234 0000 90ED0A0B 		vldr.64	d0, [r0, #40]
 1235 0004 7047     		bx	lr
 1236              		.cfi_endproc
 1237              	.LFE341:
 1239 0006 00BF     		.section	.text.online_regression_slope,"ax",%progbits
 1240              		.align	1
 1241              		.p2align 2,,3
 1242              		.global	online_regression_slope
 1243              		.syntax unified
 1244              		.thumb
 1245              		.thumb_func
 1247              	online_regression_slope:
 1248              	.LVL72:
 1249              	.LFB342:
 301:lib/BTT/src/Statistics.c **** 
 302:lib/BTT/src/Statistics.c **** /*--------------------------------------------------------------------*/
 303:lib/BTT/src/Statistics.c **** double     online_regression_slope(OnlineRegression* self)
 304:lib/BTT/src/Statistics.c **** {
 1250              		.loc 1 304 1 is_stmt 1 view -0
 1251              		.cfi_startproc
 1252              		@ args = 0, pretend = 0, frame = 0
 1253              		@ frame_needed = 0, uses_anonymous_args = 0
 1254              		@ link register save eliminated.
 305:lib/BTT/src/Statistics.c ****   return self->m;
 1255              		.loc 1 305 3 view .LVU385
 306:lib/BTT/src/Statistics.c **** }
 1256              		.loc 1 306 1 is_stmt 0 view .LVU386
 1257 0000 90ED0C0B 		vldr.64	d0, [r0, #48]
 1258 0004 7047     		bx	lr
 1259              		.cfi_endproc
 1260              	.LFE342:
 1262 0006 00BF     		.section	.text.online_regression_y_intercept,"ax",%progbits
 1263              		.align	1
 1264              		.p2align 2,,3
 1265              		.global	online_regression_y_intercept
 1266              		.syntax unified
 1267              		.thumb
 1268              		.thumb_func
 1270              	online_regression_y_intercept:
ARM GAS  /var/folders/lw/_hmdf9396f92znj902yw3qj00000gn/T//ccbdwRJx.s 			page 32


 1271              	.LVL73:
 1272              	.LFB343:
 307:lib/BTT/src/Statistics.c **** 
 308:lib/BTT/src/Statistics.c **** /*--------------------------------------------------------------------*/
 309:lib/BTT/src/Statistics.c **** double     online_regression_y_intercept(OnlineRegression* self)
 310:lib/BTT/src/Statistics.c **** {
 1273              		.loc 1 310 1 is_stmt 1 view -0
 1274              		.cfi_startproc
 1275              		@ args = 0, pretend = 0, frame = 0
 1276              		@ frame_needed = 0, uses_anonymous_args = 0
 1277              		@ link register save eliminated.
 311:lib/BTT/src/Statistics.c ****   return self->b;
 1278              		.loc 1 311 3 view .LVU388
 312:lib/BTT/src/Statistics.c **** }
 1279              		.loc 1 312 1 is_stmt 0 view .LVU389
 1280 0000 90ED0E0B 		vldr.64	d0, [r0, #56]
 1281 0004 7047     		bx	lr
 1282              		.cfi_endproc
 1283              	.LFE343:
 1285 0006 00BF     		.section	.text.online_regression_r_squared,"ax",%progbits
 1286              		.align	1
 1287              		.p2align 2,,3
 1288              		.global	online_regression_r_squared
 1289              		.syntax unified
 1290              		.thumb
 1291              		.thumb_func
 1293              	online_regression_r_squared:
 1294              	.LVL74:
 1295              	.LFB344:
 313:lib/BTT/src/Statistics.c **** 
 314:lib/BTT/src/Statistics.c **** /*--------------------------------------------------------------------*/
 315:lib/BTT/src/Statistics.c **** double     online_regression_r_squared(OnlineRegression* self)
 316:lib/BTT/src/Statistics.c **** {
 1296              		.loc 1 316 1 is_stmt 1 view -0
 1297              		.cfi_startproc
 1298              		@ args = 0, pretend = 0, frame = 0
 1299              		@ frame_needed = 0, uses_anonymous_args = 0
 1300              		@ link register save eliminated.
 317:lib/BTT/src/Statistics.c ****   return self->r_2;
 1301              		.loc 1 317 3 view .LVU391
 318:lib/BTT/src/Statistics.c **** }
 1302              		.loc 1 318 1 is_stmt 0 view .LVU392
 1303 0000 90ED100B 		vldr.64	d0, [r0, #64]
 1304 0004 7047     		bx	lr
 1305              		.cfi_endproc
 1306              	.LFE344:
 1308 0006 00BF     		.section	.text.online_regression_update,"ax",%progbits
 1309              		.align	1
 1310              		.p2align 2,,3
 1311              		.global	online_regression_update
 1312              		.syntax unified
 1313              		.thumb
 1314              		.thumb_func
 1316              	online_regression_update:
 1317              	.LVL75:
 1318              	.LFB345:
 319:lib/BTT/src/Statistics.c **** 
ARM GAS  /var/folders/lw/_hmdf9396f92znj902yw3qj00000gn/T//ccbdwRJx.s 			page 33


 320:lib/BTT/src/Statistics.c **** /*--------------------------------------------------------------------*/
 321:lib/BTT/src/Statistics.c **** void online_regression_update(OnlineRegression* self, double     a_data /*x*/, double     b_data /*
 322:lib/BTT/src/Statistics.c **** {
 1319              		.loc 1 322 1 is_stmt 1 view -0
 1320              		.cfi_startproc
 1321              		@ args = 0, pretend = 0, frame = 0
 1322              		@ frame_needed = 0, uses_anonymous_args = 0
 1323              		@ link register save eliminated.
 323:lib/BTT/src/Statistics.c ****   ++self->n;
 1324              		.loc 1 323 3 view .LVU394
 1325              		.loc 1 323 9 is_stmt 0 view .LVU395
 1326 0000 0368     		ldr	r3, [r0]
 1327              		.loc 1 323 3 view .LVU396
 1328 0002 5A1C     		adds	r2, r3, #1
 324:lib/BTT/src/Statistics.c ****   double     one_over_n = 1.0 / (double)self->n;
 1329              		.loc 1 324 33 view .LVU397
 1330 0004 07EE902A 		vmov	s15, r2	@ int
 323:lib/BTT/src/Statistics.c ****   ++self->n;
 1331              		.loc 1 323 3 view .LVU398
 1332 0008 0260     		str	r2, [r0]
 1333              		.loc 1 324 3 is_stmt 1 view .LVU399
 1334              		.loc 1 324 33 is_stmt 0 view .LVU400
 1335 000a B8EE677B 		vcvt.f64.u32	d7, s15
 322:lib/BTT/src/Statistics.c ****   ++self->n;
 1336              		.loc 1 322 1 view .LVU401
 1337 000e 2DED068B 		vpush.64	{d8, d9, d10}
 1338              		.cfi_def_cfa_offset 24
 1339              		.cfi_offset 80, -24
 1340              		.cfi_offset 81, -20
 1341              		.cfi_offset 82, -16
 1342              		.cfi_offset 83, -12
 1343              		.cfi_offset 84, -8
 1344              		.cfi_offset 85, -4
 1345              		.loc 1 324 14 view .LVU402
 1346 0012 B7EE009B 		vmov.f64	d9, #1.0e+0
 325:lib/BTT/src/Statistics.c ****   
 326:lib/BTT/src/Statistics.c ****   double     n_minus_1_over_n = (self->n-1) * one_over_n;
 327:lib/BTT/src/Statistics.c ****   double     d_a = a_data - self->a_mean;
 1347              		.loc 1 327 33 view .LVU403
 1348 0016 90ED022B 		vldr.64	d2, [r0, #8]
 324:lib/BTT/src/Statistics.c ****   
 1349              		.loc 1 324 14 view .LVU404
 1350 001a 89EE074B 		vdiv.f64	d4, d9, d7
 1351              	.LVL76:
 326:lib/BTT/src/Statistics.c ****   double     d_a = a_data - self->a_mean;
 1352              		.loc 1 326 3 is_stmt 1 view .LVU405
 326:lib/BTT/src/Statistics.c ****   double     d_a = a_data - self->a_mean;
 1353              		.loc 1 326 45 is_stmt 0 view .LVU406
 1354 001e 07EE903A 		vmov	s15, r3	@ int
 1355 0022 B8EE677B 		vcvt.f64.u32	d7, s15
 1356              		.loc 1 327 14 view .LVU407
 1357 0026 30EE420B 		vsub.f64	d0, d0, d2
 1358              	.LVL77:
 328:lib/BTT/src/Statistics.c ****   double     d_b = b_data - self->b_mean;
 329:lib/BTT/src/Statistics.c ****   
 330:lib/BTT/src/Statistics.c ****   double     new_m, new_b;
 331:lib/BTT/src/Statistics.c ****   self->a_variance += (n_minus_1_over_n * d_a * d_a - self->a_variance) * one_over_n;
ARM GAS  /var/folders/lw/_hmdf9396f92znj902yw3qj00000gn/T//ccbdwRJx.s 			page 34


 1359              		.loc 1 331 20 view .LVU408
 1360 002a 90ED065B 		vldr.64	d5, [r0, #24]
 328:lib/BTT/src/Statistics.c ****   double     d_b = b_data - self->b_mean;
 1361              		.loc 1 328 33 view .LVU409
 1362 002e 90ED043B 		vldr.64	d3, [r0, #16]
 332:lib/BTT/src/Statistics.c ****   self->b_variance += (n_minus_1_over_n * d_b * d_b - self->b_variance) * one_over_n;
 333:lib/BTT/src/Statistics.c ****   self->covariance += (n_minus_1_over_n * d_a * d_b - self->covariance) * one_over_n;
 1363              		.loc 1 333 20 view .LVU410
 1364 0032 90ED0A6B 		vldr.64	d6, [r0, #40]
 331:lib/BTT/src/Statistics.c ****   self->b_variance += (n_minus_1_over_n * d_b * d_b - self->b_variance) * one_over_n;
 1365              		.loc 1 331 53 view .LVU411
 1366 0036 B0EE45AB 		vmov.f64	d10, d5
 328:lib/BTT/src/Statistics.c ****   double     d_b = b_data - self->b_mean;
 1367              		.loc 1 328 14 view .LVU412
 1368 003a 31EE431B 		vsub.f64	d1, d1, d3
 1369              	.LVL78:
 332:lib/BTT/src/Statistics.c ****   self->b_variance += (n_minus_1_over_n * d_b * d_b - self->b_variance) * one_over_n;
 1370              		.loc 1 332 20 view .LVU413
 1371 003e 90ED088B 		vldr.64	d8, [r0, #32]
 326:lib/BTT/src/Statistics.c ****   double     d_a = a_data - self->a_mean;
 1372              		.loc 1 326 14 view .LVU414
 1373 0042 27EE047B 		vmul.f64	d7, d7, d4
 1374              	.LVL79:
 327:lib/BTT/src/Statistics.c ****   double     d_b = b_data - self->b_mean;
 1375              		.loc 1 327 3 is_stmt 1 view .LVU415
 328:lib/BTT/src/Statistics.c ****   
 1376              		.loc 1 328 3 view .LVU416
 330:lib/BTT/src/Statistics.c ****   self->a_variance += (n_minus_1_over_n * d_a * d_a - self->a_variance) * one_over_n;
 1377              		.loc 1 330 3 view .LVU417
 331:lib/BTT/src/Statistics.c ****   self->b_variance += (n_minus_1_over_n * d_b * d_b - self->b_variance) * one_over_n;
 1378              		.loc 1 331 3 view .LVU418
 334:lib/BTT/src/Statistics.c ****   
 335:lib/BTT/src/Statistics.c ****   self->a_mean += d_a * one_over_n;
 1379              		.loc 1 335 16 is_stmt 0 view .LVU419
 1380 0046 A4EE002B 		vfma.f64	d2, d4, d0
 331:lib/BTT/src/Statistics.c ****   self->b_variance += (n_minus_1_over_n * d_b * d_b - self->b_variance) * one_over_n;
 1381              		.loc 1 331 41 view .LVU420
 1382 004a 27EE009B 		vmul.f64	d9, d7, d0
 332:lib/BTT/src/Statistics.c ****   self->covariance += (n_minus_1_over_n * d_a * d_b - self->covariance) * one_over_n;
 1383              		.loc 1 332 41 view .LVU421
 1384 004e 27EE017B 		vmul.f64	d7, d7, d1
 1385              	.LVL80:
 331:lib/BTT/src/Statistics.c ****   self->b_variance += (n_minus_1_over_n * d_b * d_b - self->b_variance) * one_over_n;
 1386              		.loc 1 331 53 view .LVU422
 1387 0052 99EE00AB 		vfnms.f64	d10, d9, d0
 333:lib/BTT/src/Statistics.c ****   
 1388              		.loc 1 333 53 view .LVU423
 1389 0056 B0EE460B 		vmov.f64	d0, d6
 1390              	.LVL81:
 336:lib/BTT/src/Statistics.c ****   self->b_mean += d_b * one_over_n;
 1391              		.loc 1 336 16 view .LVU424
 1392 005a A4EE013B 		vfma.f64	d3, d4, d1
 333:lib/BTT/src/Statistics.c ****   
 1393              		.loc 1 333 53 view .LVU425
 1394 005e 99EE010B 		vfnms.f64	d0, d9, d1
 331:lib/BTT/src/Statistics.c ****   self->b_variance += (n_minus_1_over_n * d_b * d_b - self->b_variance) * one_over_n;
 1395              		.loc 1 331 20 view .LVU426
ARM GAS  /var/folders/lw/_hmdf9396f92znj902yw3qj00000gn/T//ccbdwRJx.s 			page 35


 1396 0062 AAEE045B 		vfma.f64	d5, d10, d4
 332:lib/BTT/src/Statistics.c ****   self->covariance += (n_minus_1_over_n * d_a * d_b - self->covariance) * one_over_n;
 1397              		.loc 1 332 53 view .LVU427
 1398 0066 B0EE48AB 		vmov.f64	d10, d8
 335:lib/BTT/src/Statistics.c ****   self->b_mean += d_b * one_over_n;
 1399              		.loc 1 335 16 view .LVU428
 1400 006a 80ED022B 		vstr.64	d2, [r0, #8]
 1401              	.LVL82:
 332:lib/BTT/src/Statistics.c ****   self->covariance += (n_minus_1_over_n * d_a * d_b - self->covariance) * one_over_n;
 1402              		.loc 1 332 53 view .LVU429
 1403 006e 97EE01AB 		vfnms.f64	d10, d7, d1
 333:lib/BTT/src/Statistics.c ****   
 1404              		.loc 1 333 20 view .LVU430
 1405 0072 B0EE467B 		vmov.f64	d7, d6
 1406              		.loc 1 336 16 view .LVU431
 1407 0076 80ED043B 		vstr.64	d3, [r0, #16]
 333:lib/BTT/src/Statistics.c ****   
 1408              		.loc 1 333 20 view .LVU432
 1409 007a A0EE047B 		vfma.f64	d7, d0, d4
 332:lib/BTT/src/Statistics.c ****   self->covariance += (n_minus_1_over_n * d_a * d_b - self->covariance) * one_over_n;
 1410              		.loc 1 332 20 view .LVU433
 1411 007e AAEE048B 		vfma.f64	d8, d10, d4
 331:lib/BTT/src/Statistics.c ****   self->b_variance += (n_minus_1_over_n * d_b * d_b - self->b_variance) * one_over_n;
 1412              		.loc 1 331 20 view .LVU434
 1413 0082 80ED065B 		vstr.64	d5, [r0, #24]
 332:lib/BTT/src/Statistics.c ****   self->covariance += (n_minus_1_over_n * d_a * d_b - self->covariance) * one_over_n;
 1414              		.loc 1 332 3 is_stmt 1 view .LVU435
 337:lib/BTT/src/Statistics.c ****   
 338:lib/BTT/src/Statistics.c ****   if((self->a_variance == 0) || (self->covariance == 0))
 1415              		.loc 1 338 30 is_stmt 0 view .LVU436
 1416 0086 B5EE407B 		vcmp.f64	d7, #0
 333:lib/BTT/src/Statistics.c ****   
 1417              		.loc 1 333 20 view .LVU437
 1418 008a 80ED0A7B 		vstr.64	d7, [r0, #40]
 1419              		.loc 1 338 30 view .LVU438
 1420 008e F1EE10FA 		vmrs	APSR_nzcv, FPSCR
 332:lib/BTT/src/Statistics.c ****   self->covariance += (n_minus_1_over_n * d_a * d_b - self->covariance) * one_over_n;
 1421              		.loc 1 332 20 view .LVU439
 1422 0092 80ED088B 		vstr.64	d8, [r0, #32]
 333:lib/BTT/src/Statistics.c ****   
 1423              		.loc 1 333 3 is_stmt 1 view .LVU440
 335:lib/BTT/src/Statistics.c ****   self->b_mean += d_b * one_over_n;
 1424              		.loc 1 335 3 view .LVU441
 336:lib/BTT/src/Statistics.c ****   
 1425              		.loc 1 336 3 view .LVU442
 1426              		.loc 1 338 3 view .LVU443
 1427              		.loc 1 338 30 is_stmt 0 view .LVU444
 1428 0096 14D0     		beq	.L101
 1429 0098 B5EE405B 		vcmp.f64	d5, #0
 1430 009c F1EE10FA 		vmrs	APSR_nzcv, FPSCR
 1431 00a0 0FD0     		beq	.L101
 339:lib/BTT/src/Statistics.c ****     return;
 340:lib/BTT/src/Statistics.c ****   
 341:lib/BTT/src/Statistics.c ****   new_m = self->covariance / self->a_variance;
 1432              		.loc 1 341 3 is_stmt 1 view .LVU445
 1433              		.loc 1 341 9 is_stmt 0 view .LVU446
 1434 00a2 87EE056B 		vdiv.f64	d6, d7, d5
ARM GAS  /var/folders/lw/_hmdf9396f92znj902yw3qj00000gn/T//ccbdwRJx.s 			page 36


 1435              	.LVL83:
 342:lib/BTT/src/Statistics.c ****   new_b = self->b_mean - (new_m * self->a_mean);
 1436              		.loc 1 342 3 is_stmt 1 view .LVU447
 343:lib/BTT/src/Statistics.c ****   self->m = new_m;
 344:lib/BTT/src/Statistics.c ****   self->b = new_b;
 345:lib/BTT/src/Statistics.c ****   self->r_2 = (self->covariance * self->covariance) / (self->a_variance * self->b_variance);
 1437              		.loc 1 345 73 is_stmt 0 view .LVU448
 1438 00a6 25EE088B 		vmul.f64	d8, d5, d8
 1439              		.loc 1 345 33 view .LVU449
 1440 00aa 27EE077B 		vmul.f64	d7, d7, d7
 1441              		.loc 1 345 53 view .LVU450
 1442 00ae 87EE085B 		vdiv.f64	d5, d7, d8
 342:lib/BTT/src/Statistics.c ****   new_b = self->b_mean - (new_m * self->a_mean);
 1443              		.loc 1 342 9 view .LVU451
 1444 00b2 A2EE463B 		vfms.f64	d3, d2, d6
 1445              	.LVL84:
 343:lib/BTT/src/Statistics.c ****   self->m = new_m;
 1446              		.loc 1 343 3 is_stmt 1 view .LVU452
 343:lib/BTT/src/Statistics.c ****   self->m = new_m;
 1447              		.loc 1 343 11 is_stmt 0 view .LVU453
 1448 00b6 80ED0C6B 		vstr.64	d6, [r0, #48]
 344:lib/BTT/src/Statistics.c ****   self->r_2 = (self->covariance * self->covariance) / (self->a_variance * self->b_variance);
 1449              		.loc 1 344 3 is_stmt 1 view .LVU454
 344:lib/BTT/src/Statistics.c ****   self->r_2 = (self->covariance * self->covariance) / (self->a_variance * self->b_variance);
 1450              		.loc 1 344 11 is_stmt 0 view .LVU455
 1451 00ba 80ED0E3B 		vstr.64	d3, [r0, #56]
 1452              		.loc 1 345 3 is_stmt 1 view .LVU456
 1453              		.loc 1 345 13 is_stmt 0 view .LVU457
 1454 00be 80ED105B 		vstr.64	d5, [r0, #64]
 1455              	.LVL85:
 1456              	.L101:
 346:lib/BTT/src/Statistics.c **** }
 1457              		.loc 1 346 1 view .LVU458
 1458 00c2 BDEC068B 		vldm	sp!, {d8-d10}
 1459              		.cfi_restore 84
 1460              		.cfi_restore 85
 1461              		.cfi_restore 82
 1462              		.cfi_restore 83
 1463              		.cfi_restore 80
 1464              		.cfi_restore 81
 1465              		.cfi_def_cfa_offset 0
 1466 00c6 7047     		bx	lr
 1467              		.cfi_endproc
 1468              	.LFE345:
 1470              		.section	.text.adaptive_threshold_new,"ax",%progbits
 1471              		.align	1
 1472              		.p2align 2,,3
 1473              		.global	adaptive_threshold_new
 1474              		.syntax unified
 1475              		.thumb
 1476              		.thumb_func
 1478              	adaptive_threshold_new:
 1479              	.LVL86:
 1480              	.LFB346:
 347:lib/BTT/src/Statistics.c **** 
 348:lib/BTT/src/Statistics.c **** /*--------------------------------------------------------------------*/
 349:lib/BTT/src/Statistics.c **** /*----------_-----------_---_-----------_____-_---------------_----_----    _    _ 
ARM GAS  /var/folders/lw/_hmdf9396f92znj902yw3qj00000gn/T//ccbdwRJx.s 			page 37


 350:lib/BTT/src/Statistics.c ****     /_\  __| |__ _ _ __| |_(_)_ _____  |_   _| |_  _ _ ___ __| |_ | |_  ___| |__| |
 351:lib/BTT/src/Statistics.c ****    / _ \/ _` / _` | '_ \  _| \ V / -_)   | | | ' \| '_/ -_|_-< ' \| ' \/ _ \ / _` |
 352:lib/BTT/src/Statistics.c ****   /_/ \_\__,_\__,_| .__/\__|_|\_/\___|   |_| |_||_|_| \___/__/_||_|_||_\___/_\__,_|
 353:lib/BTT/src/Statistics.c **** ------------------|_|---------------------------------------------------
 354:lib/BTT/src/Statistics.c ****   Adaptive threshhold tells you when your signal goes a specified number
 355:lib/BTT/src/Statistics.c ****   of standard deviations above or below a moving average of a filtered
 356:lib/BTT/src/Statistics.c ****   version of your signal. update() returns +1 or -1 whenever your signal
 357:lib/BTT/src/Statistics.c ****   transitions to being above or below the threshold.
 358:lib/BTT/src/Statistics.c **** ----------------------------------------------------------------------*/
 359:lib/BTT/src/Statistics.c **** struct opaque_adaptive_threshold_struct
 360:lib/BTT/src/Statistics.c **** {
 361:lib/BTT/src/Statistics.c ****   double         smoothing; //coefficient 0 ~ 1
 362:lib/BTT/src/Statistics.c ****   double         threshold; //standard deviations from filtered signal
 363:lib/BTT/src/Statistics.c ****   double         min;
 364:lib/BTT/src/Statistics.c ****   // step function (-1, 0, 1) that will hold its value while input is 
 365:lib/BTT/src/Statistics.c ****   // above threshold. update() only returns +1 or -1 at the moment
 366:lib/BTT/src/Statistics.c ****   // onset_signal transitions to +1 or -1;
 367:lib/BTT/src/Statistics.c ****   double         onset_signal;
 368:lib/BTT/src/Statistics.c ****   
 369:lib/BTT/src/Statistics.c ****   //(start with high variance to avoid spurious onsets on first iterations)
 370:lib/BTT/src/Statistics.c ****   MovingAverage* avg;
 371:lib/BTT/src/Statistics.c ****   double         filtered_x;
 372:lib/BTT/src/Statistics.c **** };
 373:lib/BTT/src/Statistics.c **** 
 374:lib/BTT/src/Statistics.c **** /*--------------------------------------------------------------------*/
 375:lib/BTT/src/Statistics.c **** AdaptiveThreshold* adaptive_threshold_new(unsigned N)
 376:lib/BTT/src/Statistics.c **** {
 1481              		.loc 1 376 1 is_stmt 1 view -0
 1482              		.cfi_startproc
 1483              		@ args = 0, pretend = 0, frame = 0
 1484              		@ frame_needed = 0, uses_anonymous_args = 0
 377:lib/BTT/src/Statistics.c ****   AdaptiveThreshold* self = calloc(1, sizeof(*self));
 1485              		.loc 1 377 3 view .LVU460
 376:lib/BTT/src/Statistics.c ****   AdaptiveThreshold* self = calloc(1, sizeof(*self));
 1486              		.loc 1 376 1 is_stmt 0 view .LVU461
 1487 0000 38B5     		push	{r3, r4, r5, lr}
 1488              		.cfi_def_cfa_offset 16
 1489              		.cfi_offset 3, -16
 1490              		.cfi_offset 4, -12
 1491              		.cfi_offset 5, -8
 1492              		.cfi_offset 14, -4
 1493              		.loc 1 377 29 view .LVU462
 1494 0002 3021     		movs	r1, #48
 376:lib/BTT/src/Statistics.c ****   AdaptiveThreshold* self = calloc(1, sizeof(*self));
 1495              		.loc 1 376 1 view .LVU463
 1496 0004 0546     		mov	r5, r0
 1497              		.loc 1 377 29 view .LVU464
 1498 0006 0120     		movs	r0, #1
 1499              	.LVL87:
 1500              		.loc 1 377 29 view .LVU465
 1501 0008 FFF7FEFF 		bl	calloc
 1502              	.LVL88:
 378:lib/BTT/src/Statistics.c ****   if(self != NULL)
 1503              		.loc 1 378 3 is_stmt 1 view .LVU466
 1504              		.loc 1 378 5 is_stmt 0 view .LVU467
 1505 000c 0446     		mov	r4, r0
 1506 000e 0028     		cmp	r0, #0
ARM GAS  /var/folders/lw/_hmdf9396f92znj902yw3qj00000gn/T//ccbdwRJx.s 			page 38


 1507 0010 2AD0     		beq	.L104
 379:lib/BTT/src/Statistics.c ****     {
 380:lib/BTT/src/Statistics.c ****       self->avg = moving_average_new(N);
 1508              		.loc 1 380 7 is_stmt 1 view .LVU468
 1509              		.loc 1 380 19 is_stmt 0 view .LVU469
 1510 0012 2846     		mov	r0, r5
 1511              	.LVL89:
 1512              		.loc 1 380 19 view .LVU470
 1513 0014 FFF7FEFF 		bl	moving_average_new
 1514              	.LVL90:
 1515 0018 0146     		mov	r1, r0
 1516              		.loc 1 380 17 view .LVU471
 1517 001a 2062     		str	r0, [r4, #32]
 381:lib/BTT/src/Statistics.c ****       if(self->avg == NULL)
 1518              		.loc 1 381 7 is_stmt 1 view .LVU472
 1519              		.loc 1 381 9 is_stmt 0 view .LVU473
 1520 001c 0028     		cmp	r0, #0
 1521 001e 25D0     		beq	.L111
 382:lib/BTT/src/Statistics.c ****         return adaptive_threshold_destroy(self);
 383:lib/BTT/src/Statistics.c **** 
 384:lib/BTT/src/Statistics.c ****       adaptive_threshold_init(self);
 1522              		.loc 1 384 7 is_stmt 1 view .LVU474
 1523              	.LVL91:
 1524              	.LBB118:
 1525              	.LBI118:
 385:lib/BTT/src/Statistics.c ****     }
 386:lib/BTT/src/Statistics.c ****   return self;
 387:lib/BTT/src/Statistics.c **** }
 388:lib/BTT/src/Statistics.c **** 
 389:lib/BTT/src/Statistics.c **** /*--------------------------------------------------------------------*/
 390:lib/BTT/src/Statistics.c **** void adaptive_threshold_init(AdaptiveThreshold* self)
 1526              		.loc 1 390 6 view .LVU475
 1527              	.LBB119:
 391:lib/BTT/src/Statistics.c **** {
 392:lib/BTT/src/Statistics.c ****   self->smoothing  = 0.5; //coefficient 0 ~ 1
 1528              		.loc 1 392 3 view .LVU476
 1529              		.loc 1 392 20 is_stmt 0 view .LVU477
 1530 0020 0022     		movs	r2, #0
 1531 0022 154B     		ldr	r3, .L112
 1532              	.LBB120:
 1533              	.LBB121:
 1534              	.LBB122:
 1535              	.LBB123:
 155:lib/BTT/src/Statistics.c ****   self->s                    = 0;
 1536              		.loc 1 155 30 view .LVU478
 1537 0024 0020     		movs	r0, #0
 1538              	.LBE123:
 1539              	.LBE122:
 1540              	.LBE121:
 1541              	.LBE120:
 1542              		.loc 1 392 20 view .LVU479
 1543 0026 C4E90023 		strd	r2, [r4]
 393:lib/BTT/src/Statistics.c ****   self->threshold  = 3.5; //standard deviations from filtered signal
 1544              		.loc 1 393 3 is_stmt 1 view .LVU480
 1545              		.loc 1 393 20 is_stmt 0 view .LVU481
 1546 002a 0022     		movs	r2, #0
 1547 002c 134B     		ldr	r3, .L112+4
ARM GAS  /var/folders/lw/_hmdf9396f92znj902yw3qj00000gn/T//ccbdwRJx.s 			page 39


 1548 002e C4E90223 		strd	r2, [r4, #8]
 394:lib/BTT/src/Statistics.c ****   self->min        = 0;
 1549              		.loc 1 394 3 is_stmt 1 view .LVU482
 1550              		.loc 1 394 20 is_stmt 0 view .LVU483
 1551 0032 0022     		movs	r2, #0
 1552 0034 0023     		movs	r3, #0
 1553 0036 C4E90423 		strd	r2, [r4, #16]
 395:lib/BTT/src/Statistics.c ****   adaptive_threshold_clear(self);
 1554              		.loc 1 395 3 is_stmt 1 view .LVU484
 1555              	.LVL92:
 1556              	.LBB129:
 1557              	.LBI120:
 396:lib/BTT/src/Statistics.c **** }
 397:lib/BTT/src/Statistics.c **** 
 398:lib/BTT/src/Statistics.c **** /*--------------------------------------------------------------------*/
 399:lib/BTT/src/Statistics.c **** void adaptive_threshold_clear(AdaptiveThreshold* self)
 1558              		.loc 1 399 6 view .LVU485
 1559              	.LBB128:
 400:lib/BTT/src/Statistics.c **** {
 401:lib/BTT/src/Statistics.c ****   self->onset_signal = 0;
 1560              		.loc 1 401 3 view .LVU486
 1561              		.loc 1 401 22 is_stmt 0 view .LVU487
 1562 003a C4E90623 		strd	r2, [r4, #24]
 402:lib/BTT/src/Statistics.c ****   moving_average_init(self->avg);
 1563              		.loc 1 402 3 is_stmt 1 view .LVU488
 1564              	.LVL93:
 1565              	.LBB127:
 1566              	.LBI122:
 151:lib/BTT/src/Statistics.c **** {
 1567              		.loc 1 151 6 view .LVU489
 1568              	.LBB126:
 153:lib/BTT/src/Statistics.c ****   self->variance             = 0;
 1569              		.loc 1 153 3 view .LVU490
 153:lib/BTT/src/Statistics.c ****   self->variance             = 0;
 1570              		.loc 1 153 30 is_stmt 0 view .LVU491
 1571 003e C1E90223 		strd	r2, [r1, #8]
 154:lib/BTT/src/Statistics.c ****   self->current_sample_index = 0;
 1572              		.loc 1 154 3 is_stmt 1 view .LVU492
 154:lib/BTT/src/Statistics.c ****   self->current_sample_index = 0;
 1573              		.loc 1 154 30 is_stmt 0 view .LVU493
 1574 0042 C1E90423 		strd	r2, [r1, #16]
 155:lib/BTT/src/Statistics.c ****   self->s                    = 0;
 1575              		.loc 1 155 3 is_stmt 1 view .LVU494
 155:lib/BTT/src/Statistics.c ****   self->s                    = 0;
 1576              		.loc 1 155 30 is_stmt 0 view .LVU495
 1577 0046 C861     		str	r0, [r1, #28]
 156:lib/BTT/src/Statistics.c ****   online_average_init(self->online);  
 1578              		.loc 1 156 3 is_stmt 1 view .LVU496
 156:lib/BTT/src/Statistics.c ****   online_average_init(self->online);  
 1579              		.loc 1 156 30 is_stmt 0 view .LVU497
 1580 0048 C1E90823 		strd	r2, [r1, #32]
 157:lib/BTT/src/Statistics.c **** }
 1581              		.loc 1 157 3 is_stmt 1 view .LVU498
 1582 004c 896A     		ldr	r1, [r1, #40]
 1583              	.LVL94:
 1584              	.LBB124:
 1585              	.LBI124:
ARM GAS  /var/folders/lw/_hmdf9396f92znj902yw3qj00000gn/T//ccbdwRJx.s 			page 40


  45:lib/BTT/src/Statistics.c **** {
 1586              		.loc 1 45 6 view .LVU499
 1587              	.LBB125:
  47:lib/BTT/src/Statistics.c ****   self->mean       = 0;
 1588              		.loc 1 47 3 view .LVU500
  47:lib/BTT/src/Statistics.c ****   self->mean       = 0;
 1589              		.loc 1 47 20 is_stmt 0 view .LVU501
 1590 004e 0860     		str	r0, [r1]
  48:lib/BTT/src/Statistics.c ****   self->variance   = 0;
 1591              		.loc 1 48 3 is_stmt 1 view .LVU502
  48:lib/BTT/src/Statistics.c ****   self->variance   = 0;
 1592              		.loc 1 48 20 is_stmt 0 view .LVU503
 1593 0050 C1E90223 		strd	r2, [r1, #8]
  49:lib/BTT/src/Statistics.c ****   self->old_mean   = 0;
 1594              		.loc 1 49 3 is_stmt 1 view .LVU504
  49:lib/BTT/src/Statistics.c ****   self->old_mean   = 0;
 1595              		.loc 1 49 20 is_stmt 0 view .LVU505
 1596 0054 C1E90423 		strd	r2, [r1, #16]
  50:lib/BTT/src/Statistics.c ****   self->s          = 0;
 1597              		.loc 1 50 3 is_stmt 1 view .LVU506
  50:lib/BTT/src/Statistics.c ****   self->s          = 0;
 1598              		.loc 1 50 20 is_stmt 0 view .LVU507
 1599 0058 C1E90623 		strd	r2, [r1, #24]
  51:lib/BTT/src/Statistics.c ****   self->old_s      = 0;
 1600              		.loc 1 51 3 is_stmt 1 view .LVU508
  51:lib/BTT/src/Statistics.c ****   self->old_s      = 0;
 1601              		.loc 1 51 20 is_stmt 0 view .LVU509
 1602 005c C1E90823 		strd	r2, [r1, #32]
  52:lib/BTT/src/Statistics.c **** }
 1603              		.loc 1 52 3 is_stmt 1 view .LVU510
  52:lib/BTT/src/Statistics.c **** }
 1604              		.loc 1 52 20 is_stmt 0 view .LVU511
 1605 0060 C1E90A23 		strd	r2, [r1, #40]
 1606              	.LVL95:
  52:lib/BTT/src/Statistics.c **** }
 1607              		.loc 1 52 20 view .LVU512
 1608              	.LBE125:
 1609              	.LBE124:
 1610              	.LBE126:
 1611              	.LBE127:
 403:lib/BTT/src/Statistics.c ****   self->filtered_x   = 0;
 1612              		.loc 1 403 3 is_stmt 1 view .LVU513
 1613              		.loc 1 403 22 is_stmt 0 view .LVU514
 1614 0064 C4E90A23 		strd	r2, [r4, #40]
 1615              	.LVL96:
 1616              	.L104:
 1617              		.loc 1 403 22 view .LVU515
 1618              	.LBE128:
 1619              	.LBE129:
 1620              	.LBE119:
 1621              	.LBE118:
 387:lib/BTT/src/Statistics.c **** 
 1622              		.loc 1 387 1 view .LVU516
 1623 0068 2046     		mov	r0, r4
 1624 006a 38BD     		pop	{r3, r4, r5, pc}
 1625              	.LVL97:
 1626              	.L111:
ARM GAS  /var/folders/lw/_hmdf9396f92znj902yw3qj00000gn/T//ccbdwRJx.s 			page 41


 382:lib/BTT/src/Statistics.c **** 
 1627              		.loc 1 382 9 is_stmt 1 view .LVU517
 1628              	.LBB130:
 1629              	.LBI130:
 404:lib/BTT/src/Statistics.c **** }
 405:lib/BTT/src/Statistics.c **** 
 406:lib/BTT/src/Statistics.c **** /*--------------------------------------------------------------------*/
 407:lib/BTT/src/Statistics.c **** AdaptiveThreshold* adaptive_threshold_destroy(AdaptiveThreshold* self)
 1630              		.loc 1 407 20 view .LVU518
 1631              	.LBE130:
 408:lib/BTT/src/Statistics.c **** {
 409:lib/BTT/src/Statistics.c ****   if(self != NULL)
 1632              		.loc 1 409 3 view .LVU519
 1633              	.LBB137:
 1634              	.LBB131:
 1635              	.LBI131:
 407:lib/BTT/src/Statistics.c **** {
 1636              		.loc 1 407 20 view .LVU520
 1637              	.LBB132:
 410:lib/BTT/src/Statistics.c ****     {
 411:lib/BTT/src/Statistics.c ****       self->avg = moving_average_destroy(self->avg);
 1638              		.loc 1 411 7 view .LVU521
 1639              		.loc 1 411 7 is_stmt 0 view .LVU522
 1640              	.LBE132:
 1641              	.LBE131:
 1642              	.LBE137:
 163:lib/BTT/src/Statistics.c ****     {
 1643              		.loc 1 163 3 is_stmt 1 view .LVU523
 172:lib/BTT/src/Statistics.c **** }
 1644              		.loc 1 172 3 view .LVU524
 1645              	.LBB138:
 1646              	.LBB135:
 1647              	.LBB133:
 412:lib/BTT/src/Statistics.c ****       free(self);
 1648              		.loc 1 412 7 view .LVU525
 1649 006c 2046     		mov	r0, r4
 1650              	.LBE133:
 1651              	.LBE135:
 1652              	.LBE138:
 382:lib/BTT/src/Statistics.c **** 
 1653              		.loc 1 382 16 is_stmt 0 view .LVU526
 1654 006e 0C46     		mov	r4, r1
 1655              	.LVL98:
 1656              	.LBB139:
 1657              	.LBB136:
 1658              	.LBB134:
 1659              		.loc 1 412 7 view .LVU527
 1660 0070 FFF7FEFF 		bl	free
 1661              	.LVL99:
 1662              		.loc 1 412 7 view .LVU528
 1663 0074 F8E7     		b	.L104
 1664              	.L113:
 1665 0076 00BF     		.align	2
 1666              	.L112:
 1667 0078 0000E03F 		.word	1071644672
 1668 007c 00000C40 		.word	1074528256
 1669              	.LBE134:
ARM GAS  /var/folders/lw/_hmdf9396f92znj902yw3qj00000gn/T//ccbdwRJx.s 			page 42


 1670              	.LBE136:
 1671              	.LBE139:
 1672              		.cfi_endproc
 1673              	.LFE346:
 1675              		.section	.text.adaptive_threshold_init,"ax",%progbits
 1676              		.align	1
 1677              		.p2align 2,,3
 1678              		.global	adaptive_threshold_init
 1679              		.syntax unified
 1680              		.thumb
 1681              		.thumb_func
 1683              	adaptive_threshold_init:
 1684              	.LVL100:
 1685              	.LFB347:
 391:lib/BTT/src/Statistics.c ****   self->smoothing  = 0.5; //coefficient 0 ~ 1
 1686              		.loc 1 391 1 is_stmt 1 view -0
 1687              		.cfi_startproc
 1688              		@ args = 0, pretend = 0, frame = 0
 1689              		@ frame_needed = 0, uses_anonymous_args = 0
 1690              		@ link register save eliminated.
 392:lib/BTT/src/Statistics.c ****   self->threshold  = 3.5; //standard deviations from filtered signal
 1691              		.loc 1 392 3 view .LVU530
 392:lib/BTT/src/Statistics.c ****   self->threshold  = 3.5; //standard deviations from filtered signal
 1692              		.loc 1 392 20 is_stmt 0 view .LVU531
 1693 0000 B6EE007B 		vmov.f64	d7, #5.0e-1
 394:lib/BTT/src/Statistics.c ****   adaptive_threshold_clear(self);
 1694              		.loc 1 394 20 view .LVU532
 1695 0004 0022     		movs	r2, #0
 1696 0006 0023     		movs	r3, #0
 1697              	.LBB146:
 1698              	.LBB147:
 402:lib/BTT/src/Statistics.c ****   self->filtered_x   = 0;
 1699              		.loc 1 402 3 view .LVU533
 1700 0008 016A     		ldr	r1, [r0, #32]
 1701              	.LBE147:
 1702              	.LBE146:
 392:lib/BTT/src/Statistics.c ****   self->threshold  = 3.5; //standard deviations from filtered signal
 1703              		.loc 1 392 20 view .LVU534
 1704 000a 80ED007B 		vstr.64	d7, [r0]
 393:lib/BTT/src/Statistics.c ****   self->min        = 0;
 1705              		.loc 1 393 3 is_stmt 1 view .LVU535
 393:lib/BTT/src/Statistics.c ****   self->min        = 0;
 1706              		.loc 1 393 20 is_stmt 0 view .LVU536
 1707 000e B0EE0C7B 		vmov.f64	d7, #3.5e+0
 391:lib/BTT/src/Statistics.c ****   self->smoothing  = 0.5; //coefficient 0 ~ 1
 1708              		.loc 1 391 1 view .LVU537
 1709 0012 10B4     		push	{r4}
 1710              		.cfi_def_cfa_offset 4
 1711              		.cfi_offset 4, -4
 1712              	.LBB162:
 1713              	.LBB158:
 1714              	.LBB148:
 1715              	.LBB149:
 155:lib/BTT/src/Statistics.c ****   self->s                    = 0;
 1716              		.loc 1 155 30 view .LVU538
 1717 0014 0024     		movs	r4, #0
 1718              	.LBE149:
ARM GAS  /var/folders/lw/_hmdf9396f92znj902yw3qj00000gn/T//ccbdwRJx.s 			page 43


 1719              	.LBE148:
 1720              	.LBE158:
 1721              	.LBE162:
 394:lib/BTT/src/Statistics.c ****   adaptive_threshold_clear(self);
 1722              		.loc 1 394 20 view .LVU539
 1723 0016 C0E90423 		strd	r2, [r0, #16]
 1724              	.LBB163:
 1725              	.LBB159:
 401:lib/BTT/src/Statistics.c ****   moving_average_init(self->avg);
 1726              		.loc 1 401 22 view .LVU540
 1727 001a C0E90623 		strd	r2, [r0, #24]
 1728              	.LBE159:
 1729              	.LBE163:
 393:lib/BTT/src/Statistics.c ****   self->min        = 0;
 1730              		.loc 1 393 20 view .LVU541
 1731 001e 80ED027B 		vstr.64	d7, [r0, #8]
 394:lib/BTT/src/Statistics.c ****   adaptive_threshold_clear(self);
 1732              		.loc 1 394 3 is_stmt 1 view .LVU542
 395:lib/BTT/src/Statistics.c **** }
 1733              		.loc 1 395 3 view .LVU543
 1734              	.LVL101:
 1735              	.LBB164:
 1736              	.LBI146:
 399:lib/BTT/src/Statistics.c **** {
 1737              		.loc 1 399 6 view .LVU544
 1738              	.LBB160:
 401:lib/BTT/src/Statistics.c ****   moving_average_init(self->avg);
 1739              		.loc 1 401 3 view .LVU545
 402:lib/BTT/src/Statistics.c ****   self->filtered_x   = 0;
 1740              		.loc 1 402 3 view .LVU546
 1741              	.LBB156:
 1742              	.LBI148:
 151:lib/BTT/src/Statistics.c **** {
 1743              		.loc 1 151 6 view .LVU547
 1744              	.LBB154:
 153:lib/BTT/src/Statistics.c ****   self->variance             = 0;
 1745              		.loc 1 153 3 view .LVU548
 155:lib/BTT/src/Statistics.c ****   self->s                    = 0;
 1746              		.loc 1 155 30 is_stmt 0 view .LVU549
 1747 0022 CC61     		str	r4, [r1, #28]
 153:lib/BTT/src/Statistics.c ****   self->variance             = 0;
 1748              		.loc 1 153 30 view .LVU550
 1749 0024 C1E90223 		strd	r2, [r1, #8]
 154:lib/BTT/src/Statistics.c ****   self->current_sample_index = 0;
 1750              		.loc 1 154 3 is_stmt 1 view .LVU551
 154:lib/BTT/src/Statistics.c ****   self->current_sample_index = 0;
 1751              		.loc 1 154 30 is_stmt 0 view .LVU552
 1752 0028 C1E90423 		strd	r2, [r1, #16]
 155:lib/BTT/src/Statistics.c ****   self->s                    = 0;
 1753              		.loc 1 155 3 is_stmt 1 view .LVU553
 156:lib/BTT/src/Statistics.c ****   online_average_init(self->online);  
 1754              		.loc 1 156 3 view .LVU554
 156:lib/BTT/src/Statistics.c ****   online_average_init(self->online);  
 1755              		.loc 1 156 30 is_stmt 0 view .LVU555
 1756 002c C1E90823 		strd	r2, [r1, #32]
 157:lib/BTT/src/Statistics.c **** }
 1757              		.loc 1 157 3 is_stmt 1 view .LVU556
ARM GAS  /var/folders/lw/_hmdf9396f92znj902yw3qj00000gn/T//ccbdwRJx.s 			page 44


 1758 0030 896A     		ldr	r1, [r1, #40]
 1759              	.LVL102:
 1760              	.LBB150:
 1761              	.LBI150:
  45:lib/BTT/src/Statistics.c **** {
 1762              		.loc 1 45 6 view .LVU557
 1763              	.LBB151:
  47:lib/BTT/src/Statistics.c ****   self->mean       = 0;
 1764              		.loc 1 47 3 view .LVU558
  47:lib/BTT/src/Statistics.c ****   self->mean       = 0;
 1765              		.loc 1 47 20 is_stmt 0 view .LVU559
 1766 0032 0C60     		str	r4, [r1]
  48:lib/BTT/src/Statistics.c ****   self->variance   = 0;
 1767              		.loc 1 48 3 is_stmt 1 view .LVU560
 1768              	.LBE151:
 1769              	.LBE150:
 1770              	.LBE154:
 1771              	.LBE156:
 1772              	.LBE160:
 1773              	.LBE164:
 396:lib/BTT/src/Statistics.c **** 
 1774              		.loc 1 396 1 is_stmt 0 view .LVU561
 1775 0034 5DF8044B 		ldr	r4, [sp], #4
 1776              		.cfi_restore 4
 1777              		.cfi_def_cfa_offset 0
 1778              	.LBB165:
 1779              	.LBB161:
 1780              	.LBB157:
 1781              	.LBB155:
 1782              	.LBB153:
 1783              	.LBB152:
  48:lib/BTT/src/Statistics.c ****   self->variance   = 0;
 1784              		.loc 1 48 20 view .LVU562
 1785 0038 C1E90223 		strd	r2, [r1, #8]
  49:lib/BTT/src/Statistics.c ****   self->old_mean   = 0;
 1786              		.loc 1 49 3 is_stmt 1 view .LVU563
  49:lib/BTT/src/Statistics.c ****   self->old_mean   = 0;
 1787              		.loc 1 49 20 is_stmt 0 view .LVU564
 1788 003c C1E90423 		strd	r2, [r1, #16]
  50:lib/BTT/src/Statistics.c ****   self->s          = 0;
 1789              		.loc 1 50 3 is_stmt 1 view .LVU565
  50:lib/BTT/src/Statistics.c ****   self->s          = 0;
 1790              		.loc 1 50 20 is_stmt 0 view .LVU566
 1791 0040 C1E90623 		strd	r2, [r1, #24]
  51:lib/BTT/src/Statistics.c ****   self->old_s      = 0;
 1792              		.loc 1 51 3 is_stmt 1 view .LVU567
  51:lib/BTT/src/Statistics.c ****   self->old_s      = 0;
 1793              		.loc 1 51 20 is_stmt 0 view .LVU568
 1794 0044 C1E90823 		strd	r2, [r1, #32]
  52:lib/BTT/src/Statistics.c **** }
 1795              		.loc 1 52 3 is_stmt 1 view .LVU569
  52:lib/BTT/src/Statistics.c **** }
 1796              		.loc 1 52 20 is_stmt 0 view .LVU570
 1797 0048 C1E90A23 		strd	r2, [r1, #40]
 1798              	.LVL103:
  52:lib/BTT/src/Statistics.c **** }
 1799              		.loc 1 52 20 view .LVU571
ARM GAS  /var/folders/lw/_hmdf9396f92znj902yw3qj00000gn/T//ccbdwRJx.s 			page 45


 1800              	.LBE152:
 1801              	.LBE153:
 1802              	.LBE155:
 1803              	.LBE157:
 403:lib/BTT/src/Statistics.c **** }
 1804              		.loc 1 403 3 is_stmt 1 view .LVU572
 403:lib/BTT/src/Statistics.c **** }
 1805              		.loc 1 403 22 is_stmt 0 view .LVU573
 1806 004c C0E90A23 		strd	r2, [r0, #40]
 1807              	.LVL104:
 403:lib/BTT/src/Statistics.c **** }
 1808              		.loc 1 403 22 view .LVU574
 1809              	.LBE161:
 1810              	.LBE165:
 396:lib/BTT/src/Statistics.c **** 
 1811              		.loc 1 396 1 view .LVU575
 1812 0050 7047     		bx	lr
 1813              		.cfi_endproc
 1814              	.LFE347:
 1816 0052 00BF     		.section	.text.adaptive_threshold_clear,"ax",%progbits
 1817              		.align	1
 1818              		.p2align 2,,3
 1819              		.global	adaptive_threshold_clear
 1820              		.syntax unified
 1821              		.thumb
 1822              		.thumb_func
 1824              	adaptive_threshold_clear:
 1825              	.LVL105:
 1826              	.LFB348:
 400:lib/BTT/src/Statistics.c ****   self->onset_signal = 0;
 1827              		.loc 1 400 1 is_stmt 1 view -0
 1828              		.cfi_startproc
 1829              		@ args = 0, pretend = 0, frame = 0
 1830              		@ frame_needed = 0, uses_anonymous_args = 0
 1831              		@ link register save eliminated.
 401:lib/BTT/src/Statistics.c ****   moving_average_init(self->avg);
 1832              		.loc 1 401 3 view .LVU577
 400:lib/BTT/src/Statistics.c ****   self->onset_signal = 0;
 1833              		.loc 1 400 1 is_stmt 0 view .LVU578
 1834 0000 10B4     		push	{r4}
 1835              		.cfi_def_cfa_offset 4
 1836              		.cfi_offset 4, -4
 402:lib/BTT/src/Statistics.c ****   self->filtered_x   = 0;
 1837              		.loc 1 402 3 view .LVU579
 1838 0002 016A     		ldr	r1, [r0, #32]
 401:lib/BTT/src/Statistics.c ****   moving_average_init(self->avg);
 1839              		.loc 1 401 22 view .LVU580
 1840 0004 0022     		movs	r2, #0
 1841 0006 0023     		movs	r3, #0
 1842              	.LBB170:
 1843              	.LBB171:
 155:lib/BTT/src/Statistics.c ****   self->s                    = 0;
 1844              		.loc 1 155 30 view .LVU581
 1845 0008 0024     		movs	r4, #0
 1846              	.LBE171:
 1847              	.LBE170:
 401:lib/BTT/src/Statistics.c ****   moving_average_init(self->avg);
ARM GAS  /var/folders/lw/_hmdf9396f92znj902yw3qj00000gn/T//ccbdwRJx.s 			page 46


 1848              		.loc 1 401 22 view .LVU582
 1849 000a C0E90623 		strd	r2, [r0, #24]
 402:lib/BTT/src/Statistics.c ****   self->filtered_x   = 0;
 1850              		.loc 1 402 3 is_stmt 1 view .LVU583
 1851              	.LVL106:
 1852              	.LBB178:
 1853              	.LBI170:
 151:lib/BTT/src/Statistics.c **** {
 1854              		.loc 1 151 6 view .LVU584
 1855              	.LBB176:
 153:lib/BTT/src/Statistics.c ****   self->variance             = 0;
 1856              		.loc 1 153 3 view .LVU585
 155:lib/BTT/src/Statistics.c ****   self->s                    = 0;
 1857              		.loc 1 155 30 is_stmt 0 view .LVU586
 1858 000e CC61     		str	r4, [r1, #28]
 153:lib/BTT/src/Statistics.c ****   self->variance             = 0;
 1859              		.loc 1 153 30 view .LVU587
 1860 0010 C1E90223 		strd	r2, [r1, #8]
 154:lib/BTT/src/Statistics.c ****   self->current_sample_index = 0;
 1861              		.loc 1 154 3 is_stmt 1 view .LVU588
 154:lib/BTT/src/Statistics.c ****   self->current_sample_index = 0;
 1862              		.loc 1 154 30 is_stmt 0 view .LVU589
 1863 0014 C1E90423 		strd	r2, [r1, #16]
 155:lib/BTT/src/Statistics.c ****   self->s                    = 0;
 1864              		.loc 1 155 3 is_stmt 1 view .LVU590
 156:lib/BTT/src/Statistics.c ****   online_average_init(self->online);  
 1865              		.loc 1 156 3 view .LVU591
 156:lib/BTT/src/Statistics.c ****   online_average_init(self->online);  
 1866              		.loc 1 156 30 is_stmt 0 view .LVU592
 1867 0018 C1E90823 		strd	r2, [r1, #32]
 157:lib/BTT/src/Statistics.c **** }
 1868              		.loc 1 157 3 is_stmt 1 view .LVU593
 1869 001c 896A     		ldr	r1, [r1, #40]
 1870              	.LVL107:
 1871              	.LBB172:
 1872              	.LBI172:
  45:lib/BTT/src/Statistics.c **** {
 1873              		.loc 1 45 6 view .LVU594
 1874              	.LBB173:
  47:lib/BTT/src/Statistics.c ****   self->mean       = 0;
 1875              		.loc 1 47 3 view .LVU595
  47:lib/BTT/src/Statistics.c ****   self->mean       = 0;
 1876              		.loc 1 47 20 is_stmt 0 view .LVU596
 1877 001e 0C60     		str	r4, [r1]
  48:lib/BTT/src/Statistics.c ****   self->variance   = 0;
 1878              		.loc 1 48 3 is_stmt 1 view .LVU597
 1879              	.LBE173:
 1880              	.LBE172:
 1881              	.LBE176:
 1882              	.LBE178:
 404:lib/BTT/src/Statistics.c **** 
 1883              		.loc 1 404 1 is_stmt 0 view .LVU598
 1884 0020 5DF8044B 		ldr	r4, [sp], #4
 1885              		.cfi_restore 4
 1886              		.cfi_def_cfa_offset 0
 1887              	.LBB179:
 1888              	.LBB177:
ARM GAS  /var/folders/lw/_hmdf9396f92znj902yw3qj00000gn/T//ccbdwRJx.s 			page 47


 1889              	.LBB175:
 1890              	.LBB174:
  48:lib/BTT/src/Statistics.c ****   self->variance   = 0;
 1891              		.loc 1 48 20 view .LVU599
 1892 0024 C1E90223 		strd	r2, [r1, #8]
  49:lib/BTT/src/Statistics.c ****   self->old_mean   = 0;
 1893              		.loc 1 49 3 is_stmt 1 view .LVU600
  49:lib/BTT/src/Statistics.c ****   self->old_mean   = 0;
 1894              		.loc 1 49 20 is_stmt 0 view .LVU601
 1895 0028 C1E90423 		strd	r2, [r1, #16]
  50:lib/BTT/src/Statistics.c ****   self->s          = 0;
 1896              		.loc 1 50 3 is_stmt 1 view .LVU602
  50:lib/BTT/src/Statistics.c ****   self->s          = 0;
 1897              		.loc 1 50 20 is_stmt 0 view .LVU603
 1898 002c C1E90623 		strd	r2, [r1, #24]
  51:lib/BTT/src/Statistics.c ****   self->old_s      = 0;
 1899              		.loc 1 51 3 is_stmt 1 view .LVU604
  51:lib/BTT/src/Statistics.c ****   self->old_s      = 0;
 1900              		.loc 1 51 20 is_stmt 0 view .LVU605
 1901 0030 C1E90823 		strd	r2, [r1, #32]
  52:lib/BTT/src/Statistics.c **** }
 1902              		.loc 1 52 3 is_stmt 1 view .LVU606
  52:lib/BTT/src/Statistics.c **** }
 1903              		.loc 1 52 20 is_stmt 0 view .LVU607
 1904 0034 C1E90A23 		strd	r2, [r1, #40]
 1905              	.LVL108:
  52:lib/BTT/src/Statistics.c **** }
 1906              		.loc 1 52 20 view .LVU608
 1907              	.LBE174:
 1908              	.LBE175:
 1909              	.LBE177:
 1910              	.LBE179:
 403:lib/BTT/src/Statistics.c **** }
 1911              		.loc 1 403 3 is_stmt 1 view .LVU609
 403:lib/BTT/src/Statistics.c **** }
 1912              		.loc 1 403 22 is_stmt 0 view .LVU610
 1913 0038 C0E90A23 		strd	r2, [r0, #40]
 404:lib/BTT/src/Statistics.c **** 
 1914              		.loc 1 404 1 view .LVU611
 1915 003c 7047     		bx	lr
 1916              		.cfi_endproc
 1917              	.LFE348:
 1919 003e 00BF     		.section	.text.adaptive_threshold_destroy,"ax",%progbits
 1920              		.align	1
 1921              		.p2align 2,,3
 1922              		.global	adaptive_threshold_destroy
 1923              		.syntax unified
 1924              		.thumb
 1925              		.thumb_func
 1927              	adaptive_threshold_destroy:
 1928              	.LVL109:
 1929              	.LFB349:
 408:lib/BTT/src/Statistics.c ****   if(self != NULL)
 1930              		.loc 1 408 1 is_stmt 1 view -0
 1931              		.cfi_startproc
 1932              		@ args = 0, pretend = 0, frame = 0
 1933              		@ frame_needed = 0, uses_anonymous_args = 0
ARM GAS  /var/folders/lw/_hmdf9396f92znj902yw3qj00000gn/T//ccbdwRJx.s 			page 48


 409:lib/BTT/src/Statistics.c ****     {
 1934              		.loc 1 409 3 view .LVU613
 409:lib/BTT/src/Statistics.c ****     {
 1935              		.loc 1 409 5 is_stmt 0 view .LVU614
 1936 0000 98B1     		cbz	r0, .L136
 1937              	.LVL110:
 1938              	.LBB186:
 1939              	.LBI186:
 407:lib/BTT/src/Statistics.c **** {
 1940              		.loc 1 407 20 is_stmt 1 view .LVU615
 1941              	.LBB187:
 411:lib/BTT/src/Statistics.c ****       free(self);
 1942              		.loc 1 411 7 view .LVU616
 1943              	.LBE187:
 1944              	.LBE186:
 408:lib/BTT/src/Statistics.c ****   if(self != NULL)
 1945              		.loc 1 408 1 is_stmt 0 view .LVU617
 1946 0002 38B5     		push	{r3, r4, r5, lr}
 1947              		.cfi_def_cfa_offset 16
 1948              		.cfi_offset 3, -16
 1949              		.cfi_offset 4, -12
 1950              		.cfi_offset 5, -8
 1951              		.cfi_offset 14, -4
 1952              	.LBB193:
 1953              	.LBB192:
 411:lib/BTT/src/Statistics.c ****       free(self);
 1954              		.loc 1 411 19 view .LVU618
 1955 0004 056A     		ldr	r5, [r0, #32]
 1956              	.LVL111:
 1957              	.LBB188:
 1958              	.LBI188:
 161:lib/BTT/src/Statistics.c **** {
 1959              		.loc 1 161 16 is_stmt 1 view .LVU619
 1960              	.LBB189:
 163:lib/BTT/src/Statistics.c ****     {
 1961              		.loc 1 163 3 view .LVU620
 1962 0006 0446     		mov	r4, r0
 163:lib/BTT/src/Statistics.c ****     {
 1963              		.loc 1 163 5 is_stmt 0 view .LVU621
 1964 0008 55B1     		cbz	r5, .L120
 165:lib/BTT/src/Statistics.c ****         free(self->past_samples);
 1965              		.loc 1 165 7 is_stmt 1 view .LVU622
 165:lib/BTT/src/Statistics.c ****         free(self->past_samples);
 1966              		.loc 1 165 14 is_stmt 0 view .LVU623
 1967 000a A869     		ldr	r0, [r5, #24]
 1968              	.LVL112:
 165:lib/BTT/src/Statistics.c ****         free(self->past_samples);
 1969              		.loc 1 165 9 view .LVU624
 1970 000c 08B1     		cbz	r0, .L121
 166:lib/BTT/src/Statistics.c ****         
 1971              		.loc 1 166 9 is_stmt 1 view .LVU625
 1972 000e FFF7FEFF 		bl	free
 1973              	.LVL113:
 1974              	.L121:
 168:lib/BTT/src/Statistics.c ****       
 1975              		.loc 1 168 7 view .LVU626
 168:lib/BTT/src/Statistics.c ****       
ARM GAS  /var/folders/lw/_hmdf9396f92znj902yw3qj00000gn/T//ccbdwRJx.s 			page 49


 1976              		.loc 1 168 22 is_stmt 0 view .LVU627
 1977 0012 A86A     		ldr	r0, [r5, #40]
 1978              	.LVL114:
 1979              	.LBB190:
 1980              	.LBI190:
  56:lib/BTT/src/Statistics.c **** {
 1981              		.loc 1 56 16 is_stmt 1 view .LVU628
 1982              	.LBB191:
  58:lib/BTT/src/Statistics.c ****     {
 1983              		.loc 1 58 3 view .LVU629
  58:lib/BTT/src/Statistics.c ****     {
 1984              		.loc 1 58 5 is_stmt 0 view .LVU630
 1985 0014 08B1     		cbz	r0, .L122
  60:lib/BTT/src/Statistics.c ****     }
 1986              		.loc 1 60 7 is_stmt 1 view .LVU631
 1987 0016 FFF7FEFF 		bl	free
 1988              	.LVL115:
 1989              	.L122:
  62:lib/BTT/src/Statistics.c **** }
 1990              		.loc 1 62 3 view .LVU632
  62:lib/BTT/src/Statistics.c **** }
 1991              		.loc 1 62 3 is_stmt 0 view .LVU633
 1992              	.LBE191:
 1993              	.LBE190:
 170:lib/BTT/src/Statistics.c ****     }
 1994              		.loc 1 170 7 is_stmt 1 view .LVU634
 1995 001a 2846     		mov	r0, r5
 1996 001c FFF7FEFF 		bl	free
 1997              	.LVL116:
 1998              	.L120:
 172:lib/BTT/src/Statistics.c **** }
 1999              		.loc 1 172 3 view .LVU635
 172:lib/BTT/src/Statistics.c **** }
 2000              		.loc 1 172 3 is_stmt 0 view .LVU636
 2001              	.LBE189:
 2002              	.LBE188:
 2003              		.loc 1 412 7 is_stmt 1 view .LVU637
 2004 0020 2046     		mov	r0, r4
 2005 0022 FFF7FEFF 		bl	free
 2006              	.LVL117:
 2007              		.loc 1 412 7 is_stmt 0 view .LVU638
 2008              	.LBE192:
 2009              	.LBE193:
 413:lib/BTT/src/Statistics.c ****     }
 414:lib/BTT/src/Statistics.c ****   return (AdaptiveThreshold*) NULL;
 2010              		.loc 1 414 3 is_stmt 1 view .LVU639
 415:lib/BTT/src/Statistics.c **** }
 2011              		.loc 1 415 1 is_stmt 0 view .LVU640
 2012 0026 0020     		movs	r0, #0
 2013 0028 38BD     		pop	{r3, r4, r5, pc}
 2014              	.LVL118:
 2015              	.L136:
 2016              		.cfi_def_cfa_offset 0
 2017              		.cfi_restore 3
 2018              		.cfi_restore 4
 2019              		.cfi_restore 5
 2020              		.cfi_restore 14
ARM GAS  /var/folders/lw/_hmdf9396f92znj902yw3qj00000gn/T//ccbdwRJx.s 			page 50


 414:lib/BTT/src/Statistics.c **** }
 2021              		.loc 1 414 3 is_stmt 1 view .LVU641
 2022              		.loc 1 415 1 is_stmt 0 view .LVU642
 2023 002a 0020     		movs	r0, #0
 2024              	.LVL119:
 2025              		.loc 1 415 1 view .LVU643
 2026 002c 7047     		bx	lr
 2027              		.cfi_endproc
 2028              	.LFE349:
 2030 002e 00BF     		.section	.text.adaptive_threshold_smoothing,"ax",%progbits
 2031              		.align	1
 2032              		.p2align 2,,3
 2033              		.global	adaptive_threshold_smoothing
 2034              		.syntax unified
 2035              		.thumb
 2036              		.thumb_func
 2038              	adaptive_threshold_smoothing:
 2039              	.LVL120:
 2040              	.LFB350:
 416:lib/BTT/src/Statistics.c **** 
 417:lib/BTT/src/Statistics.c **** /*--------------------------------------------------------------------*/
 418:lib/BTT/src/Statistics.c **** double     adaptive_threshold_smoothing(AdaptiveThreshold* self)
 419:lib/BTT/src/Statistics.c **** {
 2041              		.loc 1 419 1 is_stmt 1 view -0
 2042              		.cfi_startproc
 2043              		@ args = 0, pretend = 0, frame = 0
 2044              		@ frame_needed = 0, uses_anonymous_args = 0
 2045              		@ link register save eliminated.
 420:lib/BTT/src/Statistics.c ****   return self->smoothing;
 2046              		.loc 1 420 3 view .LVU645
 421:lib/BTT/src/Statistics.c **** }
 2047              		.loc 1 421 1 is_stmt 0 view .LVU646
 2048 0000 90ED000B 		vldr.64	d0, [r0]
 2049 0004 7047     		bx	lr
 2050              		.cfi_endproc
 2051              	.LFE350:
 2053 0006 00BF     		.section	.text.adaptive_threshold_set_smoothing,"ax",%progbits
 2054              		.align	1
 2055              		.p2align 2,,3
 2056              		.global	adaptive_threshold_set_smoothing
 2057              		.syntax unified
 2058              		.thumb
 2059              		.thumb_func
 2061              	adaptive_threshold_set_smoothing:
 2062              	.LVL121:
 2063              	.LFB351:
 422:lib/BTT/src/Statistics.c **** 
 423:lib/BTT/src/Statistics.c **** /*--------------------------------------------------------------------*/
 424:lib/BTT/src/Statistics.c **** void adaptive_threshold_set_smoothing(AdaptiveThreshold* self, double     coefficient)
 425:lib/BTT/src/Statistics.c **** {
 2064              		.loc 1 425 1 is_stmt 1 view -0
 2065              		.cfi_startproc
 2066              		@ args = 0, pretend = 0, frame = 0
 2067              		@ frame_needed = 0, uses_anonymous_args = 0
 2068              		@ link register save eliminated.
 426:lib/BTT/src/Statistics.c ****   coefficient = (coefficient > 1) ? 1 : ((coefficient < 0) ? 0 : coefficient);
 2069              		.loc 1 426 3 view .LVU648
ARM GAS  /var/folders/lw/_hmdf9396f92znj902yw3qj00000gn/T//ccbdwRJx.s 			page 51


 2070              		.loc 1 426 39 is_stmt 0 view .LVU649
 2071 0000 B7EE007B 		vmov.f64	d7, #1.0e+0
 2072 0004 B4EEC70B 		vcmpe.f64	d0, d7
 2073 0008 F1EE10FA 		vmrs	APSR_nzcv, FPSCR
 2074 000c 04DD     		ble	.L144
 2075 000e B0EE470B 		vmov.f64	d0, d7
 2076              	.LVL122:
 2077              	.L141:
 427:lib/BTT/src/Statistics.c ****   self->smoothing = coefficient;
 2078              		.loc 1 427 3 is_stmt 1 discriminator 8 view .LVU650
 2079              		.loc 1 427 19 is_stmt 0 discriminator 8 view .LVU651
 2080 0012 80ED000B 		vstr.64	d0, [r0]
 428:lib/BTT/src/Statistics.c **** }
 2081              		.loc 1 428 1 discriminator 8 view .LVU652
 2082 0016 7047     		bx	lr
 2083              	.L144:
 426:lib/BTT/src/Statistics.c ****   coefficient = (coefficient > 1) ? 1 : ((coefficient < 0) ? 0 : coefficient);
 2084              		.loc 1 426 64 discriminator 2 view .LVU653
 2085 0018 B5EEC00B 		vcmpe.f64	d0, #0
 2086 001c F1EE10FA 		vmrs	APSR_nzcv, FPSCR
 2087 0020 F7D5     		bpl	.L141
 426:lib/BTT/src/Statistics.c ****   coefficient = (coefficient > 1) ? 1 : ((coefficient < 0) ? 0 : coefficient);
 2088              		.loc 1 426 64 view .LVU654
 2089 0022 9FED030B 		vldr.64	d0, .L145
 2090              	.LVL123:
 427:lib/BTT/src/Statistics.c ****   self->smoothing = coefficient;
 2091              		.loc 1 427 3 is_stmt 1 view .LVU655
 427:lib/BTT/src/Statistics.c ****   self->smoothing = coefficient;
 2092              		.loc 1 427 19 is_stmt 0 view .LVU656
 2093 0026 80ED000B 		vstr.64	d0, [r0]
 2094              		.loc 1 428 1 view .LVU657
 2095 002a 7047     		bx	lr
 2096              	.L146:
 2097 002c AFF30080 		.align	3
 2098              	.L145:
 2099 0030 00000000 		.word	0
 2100 0034 00000000 		.word	0
 2101              		.cfi_endproc
 2102              	.LFE351:
 2104              		.section	.text.adaptive_threshold_threshold,"ax",%progbits
 2105              		.align	1
 2106              		.p2align 2,,3
 2107              		.global	adaptive_threshold_threshold
 2108              		.syntax unified
 2109              		.thumb
 2110              		.thumb_func
 2112              	adaptive_threshold_threshold:
 2113              	.LVL124:
 2114              	.LFB352:
 429:lib/BTT/src/Statistics.c **** 
 430:lib/BTT/src/Statistics.c **** /*--------------------------------------------------------------------*/
 431:lib/BTT/src/Statistics.c **** double     adaptive_threshold_threshold(AdaptiveThreshold* self)
 432:lib/BTT/src/Statistics.c **** {
 2115              		.loc 1 432 1 is_stmt 1 view -0
 2116              		.cfi_startproc
 2117              		@ args = 0, pretend = 0, frame = 0
 2118              		@ frame_needed = 0, uses_anonymous_args = 0
ARM GAS  /var/folders/lw/_hmdf9396f92znj902yw3qj00000gn/T//ccbdwRJx.s 			page 52


 2119              		@ link register save eliminated.
 433:lib/BTT/src/Statistics.c ****   return self->threshold;
 2120              		.loc 1 433 3 view .LVU659
 434:lib/BTT/src/Statistics.c **** }
 2121              		.loc 1 434 1 is_stmt 0 view .LVU660
 2122 0000 90ED020B 		vldr.64	d0, [r0, #8]
 2123 0004 7047     		bx	lr
 2124              		.cfi_endproc
 2125              	.LFE352:
 2127 0006 00BF     		.section	.text.adaptive_threshold_threshold_value,"ax",%progbits
 2128              		.align	1
 2129              		.p2align 2,,3
 2130              		.global	adaptive_threshold_threshold_value
 2131              		.syntax unified
 2132              		.thumb
 2133              		.thumb_func
 2135              	adaptive_threshold_threshold_value:
 2136              	.LVL125:
 2137              	.LFB353:
 435:lib/BTT/src/Statistics.c **** 
 436:lib/BTT/src/Statistics.c **** /*--------------------------------------------------------------------*/
 437:lib/BTT/src/Statistics.c **** double     adaptive_threshold_threshold_value(AdaptiveThreshold* self)
 438:lib/BTT/src/Statistics.c **** {
 2138              		.loc 1 438 1 is_stmt 1 view -0
 2139              		.cfi_startproc
 2140              		@ args = 0, pretend = 0, frame = 8
 2141              		@ frame_needed = 0, uses_anonymous_args = 0
 439:lib/BTT/src/Statistics.c ****   double result = moving_average_std_dev(self->avg) * self->threshold;
 2142              		.loc 1 439 3 view .LVU662
 2143              		.loc 1 439 19 is_stmt 0 view .LVU663
 2144 0000 036A     		ldr	r3, [r0, #32]
 2145              	.LVL126:
 2146              	.LBB194:
 2147              	.LBI194:
 200:lib/BTT/src/Statistics.c **** {
 2148              		.loc 1 200 12 is_stmt 1 view .LVU664
 2149              	.LBB195:
 202:lib/BTT/src/Statistics.c **** }
 2150              		.loc 1 202 3 view .LVU665
 202:lib/BTT/src/Statistics.c **** }
 2151              		.loc 1 202 10 is_stmt 0 view .LVU666
 2152 0002 93ED040B 		vldr.64	d0, [r3, #16]
 2153              	.LBE195:
 2154              	.LBE194:
 438:lib/BTT/src/Statistics.c ****   double result = moving_average_std_dev(self->avg) * self->threshold;
 2155              		.loc 1 438 1 view .LVU667
 2156 0006 00B5     		push	{lr}
 2157              		.cfi_def_cfa_offset 4
 2158              		.cfi_offset 14, -4
 2159 0008 B5EE400B 		vcmp.f64	d0, #0
 2160 000c 83B0     		sub	sp, sp, #12
 2161              		.cfi_def_cfa_offset 16
 2162 000e F1EE10FA 		vmrs	APSR_nzcv, FPSCR
 2163 0012 14D4     		bmi	.L156
 2164              	.LBB199:
 2165              	.LBB196:
 202:lib/BTT/src/Statistics.c **** }
ARM GAS  /var/folders/lw/_hmdf9396f92znj902yw3qj00000gn/T//ccbdwRJx.s 			page 53


 2166              		.loc 1 202 10 view .LVU668
 2167 0014 B1EEC07B 		vsqrt.f64	d7, d0
 2168              	.LVL127:
 2169              	.L151:
 202:lib/BTT/src/Statistics.c **** }
 2170              		.loc 1 202 10 view .LVU669
 2171              	.LBE196:
 2172              	.LBE199:
 2173              		.loc 1 439 10 view .LVU670
 2174 0018 90ED025B 		vldr.64	d5, [r0, #8]
 440:lib/BTT/src/Statistics.c ****   if(result < self->min)
 2175              		.loc 1 440 19 view .LVU671
 2176 001c 90ED046B 		vldr.64	d6, [r0, #16]
 441:lib/BTT/src/Statistics.c ****     result = self->min;
 442:lib/BTT/src/Statistics.c ****   return result + moving_average_mean(self->avg);
 2177              		.loc 1 442 17 view .LVU672
 2178 0020 93ED020B 		vldr.64	d0, [r3, #8]
 439:lib/BTT/src/Statistics.c ****   if(result < self->min)
 2179              		.loc 1 439 10 view .LVU673
 2180 0024 27EE057B 		vmul.f64	d7, d7, d5
 2181              	.LVL128:
 440:lib/BTT/src/Statistics.c ****   if(result < self->min)
 2182              		.loc 1 440 3 is_stmt 1 view .LVU674
 441:lib/BTT/src/Statistics.c ****     result = self->min;
 2183              		.loc 1 441 12 is_stmt 0 view .LVU675
 2184 0028 B4EE476B 		vcmp.f64	d6, d7
 2185 002c F1EE10FA 		vmrs	APSR_nzcv, FPSCR
 2186 0030 36FE077B 		vselgt.f64	d7, d6, d7
 2187              	.LVL129:
 2188              		.loc 1 442 3 is_stmt 1 view .LVU676
 2189              	.LBB200:
 2190              	.LBI200:
 188:lib/BTT/src/Statistics.c **** {
 2191              		.loc 1 188 12 view .LVU677
 2192              	.LBB201:
 190:lib/BTT/src/Statistics.c **** }
 2193              		.loc 1 190 3 view .LVU678
 190:lib/BTT/src/Statistics.c **** }
 2194              		.loc 1 190 3 is_stmt 0 view .LVU679
 2195              	.LBE201:
 2196              	.LBE200:
 443:lib/BTT/src/Statistics.c **** }
 2197              		.loc 1 443 1 view .LVU680
 2198 0034 37EE000B 		vadd.f64	d0, d7, d0
 2199 0038 03B0     		add	sp, sp, #12
 2200              		.cfi_remember_state
 2201              		.cfi_def_cfa_offset 4
 2202              		@ sp needed
 2203 003a 5DF804FB 		ldr	pc, [sp], #4
 2204              	.LVL130:
 2205              	.L156:
 2206              		.cfi_restore_state
 2207              		.loc 1 443 1 view .LVU681
 2208 003e 0190     		str	r0, [sp, #4]
 2209              	.LBB202:
 2210              	.LBB197:
 202:lib/BTT/src/Statistics.c **** }
ARM GAS  /var/folders/lw/_hmdf9396f92znj902yw3qj00000gn/T//ccbdwRJx.s 			page 54


 2211              		.loc 1 202 10 view .LVU682
 2212 0040 FFF7FEFF 		bl	sqrt
 2213              	.LVL131:
 202:lib/BTT/src/Statistics.c **** }
 2214              		.loc 1 202 10 view .LVU683
 2215              	.LBE197:
 2216              	.LBE202:
 442:lib/BTT/src/Statistics.c **** }
 2217              		.loc 1 442 19 view .LVU684
 2218 0044 0198     		ldr	r0, [sp, #4]
 2219              	.LBB203:
 2220              	.LBB198:
 202:lib/BTT/src/Statistics.c **** }
 2221              		.loc 1 202 10 view .LVU685
 2222 0046 B0EE407B 		vmov.f64	d7, d0
 2223              	.LBE198:
 2224              	.LBE203:
 442:lib/BTT/src/Statistics.c **** }
 2225              		.loc 1 442 19 view .LVU686
 2226 004a 036A     		ldr	r3, [r0, #32]
 2227 004c E4E7     		b	.L151
 2228              		.cfi_endproc
 2229              	.LFE353:
 2231 004e 00BF     		.section	.text.adaptive_threshold_set_threshold,"ax",%progbits
 2232              		.align	1
 2233              		.p2align 2,,3
 2234              		.global	adaptive_threshold_set_threshold
 2235              		.syntax unified
 2236              		.thumb
 2237              		.thumb_func
 2239              	adaptive_threshold_set_threshold:
 2240              	.LVL132:
 2241              	.LFB354:
 444:lib/BTT/src/Statistics.c **** 
 445:lib/BTT/src/Statistics.c **** /*--------------------------------------------------------------------*/
 446:lib/BTT/src/Statistics.c **** void adaptive_threshold_set_threshold(AdaptiveThreshold* self, double     std_devs)
 447:lib/BTT/src/Statistics.c **** {
 2242              		.loc 1 447 1 is_stmt 1 view -0
 2243              		.cfi_startproc
 2244              		@ args = 0, pretend = 0, frame = 0
 2245              		@ frame_needed = 0, uses_anonymous_args = 0
 2246              		@ link register save eliminated.
 448:lib/BTT/src/Statistics.c ****   //if(std_devs < 0) std_devs = 0;
 449:lib/BTT/src/Statistics.c ****   self->threshold = std_devs;
 2247              		.loc 1 449 3 view .LVU688
 2248              		.loc 1 449 19 is_stmt 0 view .LVU689
 2249 0000 80ED020B 		vstr.64	d0, [r0, #8]
 450:lib/BTT/src/Statistics.c **** }
 2250              		.loc 1 450 1 view .LVU690
 2251 0004 7047     		bx	lr
 2252              		.cfi_endproc
 2253              	.LFE354:
 2255 0006 00BF     		.section	.text.adaptive_threshold_threshold_min,"ax",%progbits
 2256              		.align	1
 2257              		.p2align 2,,3
 2258              		.global	adaptive_threshold_threshold_min
 2259              		.syntax unified
ARM GAS  /var/folders/lw/_hmdf9396f92znj902yw3qj00000gn/T//ccbdwRJx.s 			page 55


 2260              		.thumb
 2261              		.thumb_func
 2263              	adaptive_threshold_threshold_min:
 2264              	.LVL133:
 2265              	.LFB355:
 451:lib/BTT/src/Statistics.c **** 
 452:lib/BTT/src/Statistics.c **** /*--------------------------------------------------------------------*/
 453:lib/BTT/src/Statistics.c **** double             adaptive_threshold_threshold_min    (AdaptiveThreshold* self)
 454:lib/BTT/src/Statistics.c **** {
 2266              		.loc 1 454 1 is_stmt 1 view -0
 2267              		.cfi_startproc
 2268              		@ args = 0, pretend = 0, frame = 0
 2269              		@ frame_needed = 0, uses_anonymous_args = 0
 2270              		@ link register save eliminated.
 455:lib/BTT/src/Statistics.c ****   return self->min;
 2271              		.loc 1 455 3 view .LVU692
 456:lib/BTT/src/Statistics.c **** }
 2272              		.loc 1 456 1 is_stmt 0 view .LVU693
 2273 0000 90ED040B 		vldr.64	d0, [r0, #16]
 2274 0004 7047     		bx	lr
 2275              		.cfi_endproc
 2276              	.LFE355:
 2278 0006 00BF     		.section	.text.adaptive_threshold_set_threshold_min,"ax",%progbits
 2279              		.align	1
 2280              		.p2align 2,,3
 2281              		.global	adaptive_threshold_set_threshold_min
 2282              		.syntax unified
 2283              		.thumb
 2284              		.thumb_func
 2286              	adaptive_threshold_set_threshold_min:
 2287              	.LVL134:
 2288              	.LFB356:
 457:lib/BTT/src/Statistics.c **** /*--------------------------------------------------------------------*/
 458:lib/BTT/src/Statistics.c **** void               adaptive_threshold_set_threshold_min(AdaptiveThreshold* self, double min)
 459:lib/BTT/src/Statistics.c **** {
 2289              		.loc 1 459 1 is_stmt 1 view -0
 2290              		.cfi_startproc
 2291              		@ args = 0, pretend = 0, frame = 0
 2292              		@ frame_needed = 0, uses_anonymous_args = 0
 2293              		@ link register save eliminated.
 460:lib/BTT/src/Statistics.c ****   //if(min < 0) min = 0;
 461:lib/BTT/src/Statistics.c ****   self->min = min;
 2294              		.loc 1 461 3 view .LVU695
 2295              		.loc 1 461 13 is_stmt 0 view .LVU696
 2296 0000 80ED040B 		vstr.64	d0, [r0, #16]
 462:lib/BTT/src/Statistics.c **** }
 2297              		.loc 1 462 1 view .LVU697
 2298 0004 7047     		bx	lr
 2299              		.cfi_endproc
 2300              	.LFE356:
 2302 0006 00BF     		.section	.text.adaptive_threshold_onset_signal,"ax",%progbits
 2303              		.align	1
 2304              		.p2align 2,,3
 2305              		.global	adaptive_threshold_onset_signal
 2306              		.syntax unified
 2307              		.thumb
 2308              		.thumb_func
ARM GAS  /var/folders/lw/_hmdf9396f92znj902yw3qj00000gn/T//ccbdwRJx.s 			page 56


 2310              	adaptive_threshold_onset_signal:
 2311              	.LVL135:
 2312              	.LFB357:
 463:lib/BTT/src/Statistics.c **** 
 464:lib/BTT/src/Statistics.c **** /*--------------------------------------------------------------------*/
 465:lib/BTT/src/Statistics.c **** double     adaptive_threshold_onset_signal(AdaptiveThreshold* self)
 466:lib/BTT/src/Statistics.c **** {
 2313              		.loc 1 466 1 is_stmt 1 view -0
 2314              		.cfi_startproc
 2315              		@ args = 0, pretend = 0, frame = 0
 2316              		@ frame_needed = 0, uses_anonymous_args = 0
 2317              		@ link register save eliminated.
 467:lib/BTT/src/Statistics.c ****   return self->onset_signal;
 2318              		.loc 1 467 3 view .LVU699
 468:lib/BTT/src/Statistics.c **** }
 2319              		.loc 1 468 1 is_stmt 0 view .LVU700
 2320 0000 90ED060B 		vldr.64	d0, [r0, #24]
 2321 0004 7047     		bx	lr
 2322              		.cfi_endproc
 2323              	.LFE357:
 2325 0006 00BF     		.section	.text.adaptive_threshold_mean,"ax",%progbits
 2326              		.align	1
 2327              		.p2align 2,,3
 2328              		.global	adaptive_threshold_mean
 2329              		.syntax unified
 2330              		.thumb
 2331              		.thumb_func
 2333              	adaptive_threshold_mean:
 2334              	.LVL136:
 2335              	.LFB358:
 469:lib/BTT/src/Statistics.c **** 
 470:lib/BTT/src/Statistics.c **** /*--------------------------------------------------------------------*/
 471:lib/BTT/src/Statistics.c **** double             adaptive_threshold_mean          (AdaptiveThreshold* self)
 472:lib/BTT/src/Statistics.c **** {
 2336              		.loc 1 472 1 is_stmt 1 view -0
 2337              		.cfi_startproc
 2338              		@ args = 0, pretend = 0, frame = 0
 2339              		@ frame_needed = 0, uses_anonymous_args = 0
 2340              		@ link register save eliminated.
 473:lib/BTT/src/Statistics.c ****   return moving_average_mean(self->avg);
 2341              		.loc 1 473 3 view .LVU702
 2342              	.LBB204:
 2343              	.LBI204:
 188:lib/BTT/src/Statistics.c **** {
 2344              		.loc 1 188 12 view .LVU703
 2345              	.LBB205:
 190:lib/BTT/src/Statistics.c **** }
 2346              		.loc 1 190 3 view .LVU704
 190:lib/BTT/src/Statistics.c **** }
 2347              		.loc 1 190 14 is_stmt 0 view .LVU705
 2348 0000 036A     		ldr	r3, [r0, #32]
 2349              	.LBE205:
 2350              	.LBE204:
 474:lib/BTT/src/Statistics.c **** }
 2351              		.loc 1 474 1 view .LVU706
 2352 0002 93ED020B 		vldr.64	d0, [r3, #8]
 2353 0006 7047     		bx	lr
ARM GAS  /var/folders/lw/_hmdf9396f92znj902yw3qj00000gn/T//ccbdwRJx.s 			page 57


 2354              		.cfi_endproc
 2355              	.LFE358:
 2357              		.section	.text.adaptive_threshold_update,"ax",%progbits
 2358              		.align	1
 2359              		.p2align 2,,3
 2360              		.global	adaptive_threshold_update
 2361              		.syntax unified
 2362              		.thumb
 2363              		.thumb_func
 2365              	adaptive_threshold_update:
 2366              	.LVL137:
 2367              	.LFB359:
 475:lib/BTT/src/Statistics.c **** 
 476:lib/BTT/src/Statistics.c **** /*--------------------------------------------------------------------*/
 477:lib/BTT/src/Statistics.c **** double     adaptive_threshold_update(AdaptiveThreshold* self, double     x)
 478:lib/BTT/src/Statistics.c **** {
 2368              		.loc 1 478 1 is_stmt 1 view -0
 2369              		.cfi_startproc
 2370              		@ args = 0, pretend = 0, frame = 0
 2371              		@ frame_needed = 0, uses_anonymous_args = 0
 479:lib/BTT/src/Statistics.c ****   double     next   = 0;
 2372              		.loc 1 479 3 view .LVU708
 480:lib/BTT/src/Statistics.c ****   double     result = 0;
 2373              		.loc 1 480 3 view .LVU709
 481:lib/BTT/src/Statistics.c **** 
 482:lib/BTT/src/Statistics.c ****   self->filtered_x = (x * (1-self->smoothing)) + (self->filtered_x * self->smoothing);
 2374              		.loc 1 482 3 view .LVU710
 2375              		.loc 1 482 34 is_stmt 0 view .LVU711
 2376 0000 90ED005B 		vldr.64	d5, [r0]
 2377              		.loc 1 482 68 view .LVU712
 2378 0004 90ED0A7B 		vldr.64	d7, [r0, #40]
 2379              		.loc 1 482 29 view .LVU713
 2380 0008 B7EE006B 		vmov.f64	d6, #1.0e+0
 2381              		.loc 1 482 68 view .LVU714
 2382 000c 25EE077B 		vmul.f64	d7, d5, d7
 2383              		.loc 1 482 29 view .LVU715
 2384 0010 36EE456B 		vsub.f64	d6, d6, d5
 478:lib/BTT/src/Statistics.c ****   double     next   = 0;
 2385              		.loc 1 478 1 view .LVU716
 2386 0014 10B5     		push	{r4, lr}
 2387              		.cfi_def_cfa_offset 8
 2388              		.cfi_offset 4, -8
 2389              		.cfi_offset 14, -4
 2390              		.loc 1 482 48 view .LVU717
 2391 0016 A6EE007B 		vfma.f64	d7, d6, d0
 478:lib/BTT/src/Statistics.c ****   double     next   = 0;
 2392              		.loc 1 478 1 view .LVU718
 2393 001a 0446     		mov	r4, r0
 483:lib/BTT/src/Statistics.c ****   moving_average_update(self->avg, self->filtered_x);
 2394              		.loc 1 483 3 view .LVU719
 2395 001c 006A     		ldr	r0, [r0, #32]
 2396              	.LVL138:
 478:lib/BTT/src/Statistics.c ****   double     next   = 0;
 2397              		.loc 1 478 1 view .LVU720
 2398 001e 2DED028B 		vpush.64	{d8}
 2399              		.cfi_def_cfa_offset 16
 2400              		.cfi_offset 80, -16
ARM GAS  /var/folders/lw/_hmdf9396f92znj902yw3qj00000gn/T//ccbdwRJx.s 			page 58


 2401              		.cfi_offset 81, -12
 478:lib/BTT/src/Statistics.c ****   double     next   = 0;
 2402              		.loc 1 478 1 view .LVU721
 2403 0022 B0EE408B 		vmov.f64	d8, d0
 482:lib/BTT/src/Statistics.c ****   moving_average_update(self->avg, self->filtered_x);
 2404              		.loc 1 482 20 view .LVU722
 2405 0026 84ED0A7B 		vstr.64	d7, [r4, #40]
 2406              		.loc 1 483 3 is_stmt 1 view .LVU723
 2407 002a B0EE470B 		vmov.f64	d0, d7
 2408              	.LVL139:
 2409              		.loc 1 483 3 is_stmt 0 view .LVU724
 2410 002e FFF7FEFF 		bl	moving_average_update
 2411              	.LVL140:
 484:lib/BTT/src/Statistics.c **** 
 485:lib/BTT/src/Statistics.c ****   double thresh = moving_average_std_dev(self->avg) * self->threshold;
 2412              		.loc 1 485 3 is_stmt 1 view .LVU725
 2413              		.loc 1 485 19 is_stmt 0 view .LVU726
 2414 0032 236A     		ldr	r3, [r4, #32]
 2415              	.LVL141:
 2416              	.LBB206:
 2417              	.LBI206:
 200:lib/BTT/src/Statistics.c **** {
 2418              		.loc 1 200 12 is_stmt 1 view .LVU727
 2419              	.LBB207:
 202:lib/BTT/src/Statistics.c **** }
 2420              		.loc 1 202 3 view .LVU728
 202:lib/BTT/src/Statistics.c **** }
 2421              		.loc 1 202 10 is_stmt 0 view .LVU729
 2422 0034 93ED040B 		vldr.64	d0, [r3, #16]
 2423 0038 B5EE400B 		vcmp.f64	d0, #0
 2424 003c F1EE10FA 		vmrs	APSR_nzcv, FPSCR
 2425 0040 45D4     		bmi	.L179
 2426 0042 B1EEC07B 		vsqrt.f64	d7, d0
 2427              	.LVL142:
 2428              	.L166:
 202:lib/BTT/src/Statistics.c **** }
 2429              		.loc 1 202 10 view .LVU730
 2430              	.LBE207:
 2431              	.LBE206:
 486:lib/BTT/src/Statistics.c ****   if(thresh < self->min) thresh = self->min;
 487:lib/BTT/src/Statistics.c **** 
 488:lib/BTT/src/Statistics.c ****   if((fabs(x) - moving_average_mean(self->avg)) > thresh)
 2432              		.loc 1 488 7 view .LVU731
 2433 0046 B0EEC86B 		vabs.f64	d6, d8
 485:lib/BTT/src/Statistics.c ****   if(thresh < self->min) thresh = self->min;
 2434              		.loc 1 485 10 view .LVU732
 2435 004a 94ED024B 		vldr.64	d4, [r4, #8]
 486:lib/BTT/src/Statistics.c ****   if(thresh < self->min) thresh = self->min;
 2436              		.loc 1 486 19 view .LVU733
 2437 004e 94ED045B 		vldr.64	d5, [r4, #16]
 2438              	.LBB210:
 2439              	.LBB211:
 190:lib/BTT/src/Statistics.c **** }
 2440              		.loc 1 190 14 view .LVU734
 2441 0052 93ED023B 		vldr.64	d3, [r3, #8]
 2442              	.LBE211:
 2443              	.LBE210:
ARM GAS  /var/folders/lw/_hmdf9396f92znj902yw3qj00000gn/T//ccbdwRJx.s 			page 59


 485:lib/BTT/src/Statistics.c ****   if(thresh < self->min) thresh = self->min;
 2444              		.loc 1 485 10 view .LVU735
 2445 0056 27EE047B 		vmul.f64	d7, d7, d4
 2446              	.LVL143:
 486:lib/BTT/src/Statistics.c ****   if(thresh < self->min) thresh = self->min;
 2447              		.loc 1 486 3 is_stmt 1 view .LVU736
 2448              		.loc 1 488 15 is_stmt 0 view .LVU737
 2449 005a 36EE436B 		vsub.f64	d6, d6, d3
 486:lib/BTT/src/Statistics.c ****   if(thresh < self->min) thresh = self->min;
 2450              		.loc 1 486 33 view .LVU738
 2451 005e B4EE475B 		vcmp.f64	d5, d7
 2452 0062 F1EE10FA 		vmrs	APSR_nzcv, FPSCR
 2453 0066 35FE077B 		vselgt.f64	d7, d5, d7
 2454              	.LVL144:
 2455              		.loc 1 488 3 is_stmt 1 view .LVU739
 2456              	.LBB213:
 2457              	.LBI210:
 188:lib/BTT/src/Statistics.c **** {
 2458              		.loc 1 188 12 view .LVU740
 2459              	.LBB212:
 190:lib/BTT/src/Statistics.c **** }
 2460              		.loc 1 190 3 view .LVU741
 190:lib/BTT/src/Statistics.c **** }
 2461              		.loc 1 190 3 is_stmt 0 view .LVU742
 2462              	.LBE212:
 2463              	.LBE213:
 2464              		.loc 1 488 5 view .LVU743
 2465 006a B4EEC76B 		vcmpe.f64	d6, d7
 2466 006e F1EE10FA 		vmrs	APSR_nzcv, FPSCR
 2467 0072 1CDD     		ble	.L180
 489:lib/BTT/src/Statistics.c ****     next = (x > moving_average_mean(self->avg)) ? 1 : -1;
 2468              		.loc 1 489 5 is_stmt 1 view .LVU744
 2469              	.LVL145:
 190:lib/BTT/src/Statistics.c **** }
 2470              		.loc 1 190 3 view .LVU745
 2471              		.loc 1 489 10 is_stmt 0 view .LVU746
 2472 0074 B4EEC38B 		vcmpe.f64	d8, d3
 2473              	.LBB214:
 2474              	.LBB215:
 2475              	.LBB216:
 2476              	.LBB217:
  68:lib/BTT/src/Statistics.c **** }
 2477              		.loc 1 68 14 view .LVU747
 2478 0078 9B6A     		ldr	r3, [r3, #40]
 2479              	.LBE217:
 2480              	.LBE216:
 2481              	.LBE215:
 2482              	.LBE214:
 2483              		.loc 1 489 10 view .LVU748
 2484 007a B7EE007B 		vmov.f64	d7, #1.0e+0
 2485              	.LVL146:
 2486              		.loc 1 489 10 view .LVU749
 2487 007e BFEE006B 		vmov.f64	d6, #-1.0e+0
 490:lib/BTT/src/Statistics.c ****   
 491:lib/BTT/src/Statistics.c ****   //ignore the first few samples so we get a stable std dev
 492:lib/BTT/src/Statistics.c ****   if(moving_average_n(self->avg) > 10)
 2488              		.loc 1 492 5 view .LVU750
ARM GAS  /var/folders/lw/_hmdf9396f92znj902yw3qj00000gn/T//ccbdwRJx.s 			page 60


 2489 0082 1B68     		ldr	r3, [r3]
 489:lib/BTT/src/Statistics.c ****   
 2490              		.loc 1 489 10 view .LVU751
 2491 0084 F1EE10FA 		vmrs	APSR_nzcv, FPSCR
 2492 0088 37FE067B 		vselgt.f64	d7, d7, d6
 2493              	.LVL147:
 2494              		.loc 1 492 3 is_stmt 1 view .LVU752
 2495              	.LBB221:
 2496              	.LBI214:
 182:lib/BTT/src/Statistics.c **** {
 2497              		.loc 1 182 5 view .LVU753
 2498              	.LBB220:
 184:lib/BTT/src/Statistics.c **** }
 2499              		.loc 1 184 3 view .LVU754
 2500              	.LBB219:
 2501              	.LBI216:
  66:lib/BTT/src/Statistics.c **** {
 2502              		.loc 1 66 5 view .LVU755
 2503              	.LBB218:
  68:lib/BTT/src/Statistics.c **** }
 2504              		.loc 1 68 3 view .LVU756
  68:lib/BTT/src/Statistics.c **** }
 2505              		.loc 1 68 3 is_stmt 0 view .LVU757
 2506              	.LBE218:
 2507              	.LBE219:
 2508              	.LBE220:
 2509              	.LBE221:
 2510              		.loc 1 492 5 view .LVU758
 2511 008c 0A2B     		cmp	r3, #10
 2512 008e 17DD     		ble	.L181
 493:lib/BTT/src/Statistics.c ****     if((next != 0) && (self->onset_signal != next))
 2513              		.loc 1 493 20 discriminator 1 view .LVU759
 2514 0090 94ED066B 		vldr.64	d6, [r4, #24]
 2515 0094 9FED120B 		vldr.64	d0, .L184
 494:lib/BTT/src/Statistics.c ****       result = next;
 495:lib/BTT/src/Statistics.c **** 
 496:lib/BTT/src/Statistics.c ****   self->onset_signal = next;
 497:lib/BTT/src/Statistics.c ****   
 498:lib/BTT/src/Statistics.c ****   return result;
 499:lib/BTT/src/Statistics.c **** };
 2516              		.loc 1 499 1 discriminator 1 view .LVU760
 2517 0098 BDEC028B 		vldm	sp!, {d8}
 2518              		.cfi_remember_state
 2519              		.cfi_restore 80
 2520              		.cfi_restore 81
 2521              		.cfi_def_cfa_offset 8
 2522              	.LVL148:
 493:lib/BTT/src/Statistics.c ****     if((next != 0) && (self->onset_signal != next))
 2523              		.loc 1 493 20 discriminator 1 view .LVU761
 2524 009c B4EE476B 		vcmp.f64	d6, d7
 496:lib/BTT/src/Statistics.c ****   
 2525              		.loc 1 496 22 discriminator 1 view .LVU762
 2526 00a0 84ED067B 		vstr.64	d7, [r4, #24]
 493:lib/BTT/src/Statistics.c ****     if((next != 0) && (self->onset_signal != next))
 2527              		.loc 1 493 20 discriminator 1 view .LVU763
 2528 00a4 F1EE10FA 		vmrs	APSR_nzcv, FPSCR
 2529 00a8 00FE070B 		vseleq.f64	d0, d0, d7
ARM GAS  /var/folders/lw/_hmdf9396f92znj902yw3qj00000gn/T//ccbdwRJx.s 			page 61


 2530              	.LVL149:
 496:lib/BTT/src/Statistics.c ****   
 2531              		.loc 1 496 3 is_stmt 1 discriminator 1 view .LVU764
 498:lib/BTT/src/Statistics.c **** };
 2532              		.loc 1 498 3 discriminator 1 view .LVU765
 2533              		.loc 1 499 1 is_stmt 0 discriminator 1 view .LVU766
 2534 00ac 10BD     		pop	{r4, pc}
 2535              	.LVL150:
 2536              	.L180:
 2537              		.cfi_restore_state
 479:lib/BTT/src/Statistics.c ****   double     result = 0;
 2538              		.loc 1 479 14 view .LVU767
 2539 00ae 9FED0C7B 		vldr.64	d7, .L184
 2540              	.LVL151:
 2541              		.loc 1 499 1 view .LVU768
 2542 00b2 BDEC028B 		vldm	sp!, {d8}
 2543              		.cfi_remember_state
 2544              		.cfi_restore 80
 2545              		.cfi_restore 81
 2546              		.cfi_def_cfa_offset 8
 2547              	.LVL152:
 480:lib/BTT/src/Statistics.c **** 
 2548              		.loc 1 480 14 view .LVU769
 2549 00b6 B0EE470B 		vmov.f64	d0, d7
 2550              	.LVL153:
 496:lib/BTT/src/Statistics.c ****   
 2551              		.loc 1 496 3 is_stmt 1 view .LVU770
 496:lib/BTT/src/Statistics.c ****   
 2552              		.loc 1 496 22 is_stmt 0 view .LVU771
 2553 00ba 84ED067B 		vstr.64	d7, [r4, #24]
 498:lib/BTT/src/Statistics.c **** };
 2554              		.loc 1 498 3 is_stmt 1 view .LVU772
 2555              		.loc 1 499 1 is_stmt 0 view .LVU773
 2556 00be 10BD     		pop	{r4, pc}
 2557              	.LVL154:
 2558              	.L181:
 2559              		.cfi_restore_state
 2560              		.loc 1 499 1 view .LVU774
 2561 00c0 BDEC028B 		vldm	sp!, {d8}
 2562              		.cfi_remember_state
 2563              		.cfi_restore 80
 2564              		.cfi_restore 81
 2565              		.cfi_def_cfa_offset 8
 2566              	.LVL155:
 480:lib/BTT/src/Statistics.c **** 
 2567              		.loc 1 480 14 view .LVU775
 2568 00c4 9FED060B 		vldr.64	d0, .L184
 2569              	.LVL156:
 496:lib/BTT/src/Statistics.c ****   
 2570              		.loc 1 496 3 is_stmt 1 view .LVU776
 496:lib/BTT/src/Statistics.c ****   
 2571              		.loc 1 496 22 is_stmt 0 view .LVU777
 2572 00c8 84ED067B 		vstr.64	d7, [r4, #24]
 498:lib/BTT/src/Statistics.c **** };
 2573              		.loc 1 498 3 is_stmt 1 view .LVU778
 2574              		.loc 1 499 1 is_stmt 0 view .LVU779
 2575 00cc 10BD     		pop	{r4, pc}
ARM GAS  /var/folders/lw/_hmdf9396f92znj902yw3qj00000gn/T//ccbdwRJx.s 			page 62


 2576              	.LVL157:
 2577              	.L179:
 2578              		.cfi_restore_state
 2579              	.LBB222:
 2580              	.LBB208:
 202:lib/BTT/src/Statistics.c **** }
 2581              		.loc 1 202 10 view .LVU780
 2582 00ce FFF7FEFF 		bl	sqrt
 2583              	.LVL158:
 202:lib/BTT/src/Statistics.c **** }
 2584              		.loc 1 202 10 view .LVU781
 2585              	.LBE208:
 2586              	.LBE222:
 488:lib/BTT/src/Statistics.c ****     next = (x > moving_average_mean(self->avg)) ? 1 : -1;
 2587              		.loc 1 488 17 view .LVU782
 2588 00d2 236A     		ldr	r3, [r4, #32]
 2589              	.LBB223:
 2590              	.LBB209:
 202:lib/BTT/src/Statistics.c **** }
 2591              		.loc 1 202 10 view .LVU783
 2592 00d4 B0EE407B 		vmov.f64	d7, d0
 2593 00d8 B5E7     		b	.L166
 2594              	.L185:
 2595 00da 00BFAFF3 		.align	3
 2595      0080
 2596              	.L184:
 2597 00e0 00000000 		.word	0
 2598 00e4 00000000 		.word	0
 2599              	.LBE209:
 2600              	.LBE223:
 2601              		.cfi_endproc
 2602              	.LFE359:
 2604              		.section	.text.statistics_random_flat,"ax",%progbits
 2605              		.align	1
 2606              		.p2align 2,,3
 2607              		.global	statistics_random_flat
 2608              		.syntax unified
 2609              		.thumb
 2610              		.thumb_func
 2612              	statistics_random_flat:
 2613              	.LFB360:
 500:lib/BTT/src/Statistics.c **** 
 501:lib/BTT/src/Statistics.c **** 
 502:lib/BTT/src/Statistics.c **** /*--------------------------------------------------------------------*/
 503:lib/BTT/src/Statistics.c **** double     statistics_random_flat()
 504:lib/BTT/src/Statistics.c **** {
 2614              		.loc 1 504 1 is_stmt 1 view -0
 2615              		.cfi_startproc
 2616              		@ args = 0, pretend = 0, frame = 0
 2617              		@ frame_needed = 0, uses_anonymous_args = 0
 505:lib/BTT/src/Statistics.c ****   return random() / (double)RAND_MAX;
 2618              		.loc 1 505 3 view .LVU785
 504:lib/BTT/src/Statistics.c ****   return random() / (double)RAND_MAX;
 2619              		.loc 1 504 1 is_stmt 0 view .LVU786
 2620 0000 08B5     		push	{r3, lr}
 2621              		.cfi_def_cfa_offset 8
 2622              		.cfi_offset 3, -8
ARM GAS  /var/folders/lw/_hmdf9396f92znj902yw3qj00000gn/T//ccbdwRJx.s 			page 63


 2623              		.cfi_offset 14, -4
 2624              		.loc 1 505 10 view .LVU787
 2625 0002 FFF7FEFF 		bl	random
 2626              	.LVL159:
 2627              		.loc 1 505 19 view .LVU788
 2628 0006 07EE900A 		vmov	s15, r0	@ int
 2629 000a 9FED030B 		vldr.64	d0, .L188
 2630 000e B8EEE77B 		vcvt.f64.s32	d7, s15
 506:lib/BTT/src/Statistics.c **** }
 2631              		.loc 1 506 1 view .LVU789
 2632 0012 87EE000B 		vdiv.f64	d0, d7, d0
 2633 0016 08BD     		pop	{r3, pc}
 2634              	.L189:
 2635              		.align	3
 2636              	.L188:
 2637 0018 0000C0FF 		.word	-4194304
 2638 001c FFFFDF41 		.word	1105199103
 2639              		.cfi_endproc
 2640              	.LFE360:
 2642              		.section	.text.statistics_random_normal,"ax",%progbits
 2643              		.align	1
 2644              		.p2align 2,,3
 2645              		.global	statistics_random_normal
 2646              		.syntax unified
 2647              		.thumb
 2648              		.thumb_func
 2650              	statistics_random_normal:
 2651              	.LVL160:
 2652              	.LFB361:
 507:lib/BTT/src/Statistics.c **** 
 508:lib/BTT/src/Statistics.c **** /*--------------------------------------------------------------------*/
 509:lib/BTT/src/Statistics.c **** double     statistics_random_normal(double mean, double std_dev)
 510:lib/BTT/src/Statistics.c **** {
 2653              		.loc 1 510 1 is_stmt 1 view -0
 2654              		.cfi_startproc
 2655              		@ args = 0, pretend = 0, frame = 0
 2656              		@ frame_needed = 0, uses_anonymous_args = 0
 2657              		.loc 1 510 1 is_stmt 0 view .LVU791
 2658 0000 08B5     		push	{r3, lr}
 2659              		.cfi_def_cfa_offset 8
 2660              		.cfi_offset 3, -8
 2661              		.cfi_offset 14, -4
 2662 0002 2DED0E8B 		vpush.64	{d8, d9, d10, d11, d12, d13, d14}
 2663              		.cfi_def_cfa_offset 64
 2664              		.cfi_offset 80, -64
 2665              		.cfi_offset 81, -60
 2666              		.cfi_offset 82, -56
 2667              		.cfi_offset 83, -52
 2668              		.cfi_offset 84, -48
 2669              		.cfi_offset 85, -44
 2670              		.cfi_offset 86, -40
 2671              		.cfi_offset 87, -36
 2672              		.cfi_offset 88, -32
 2673              		.cfi_offset 89, -28
 2674              		.cfi_offset 90, -24
 2675              		.cfi_offset 91, -20
 2676              		.cfi_offset 92, -16
ARM GAS  /var/folders/lw/_hmdf9396f92znj902yw3qj00000gn/T//ccbdwRJx.s 			page 64


 2677              		.cfi_offset 93, -12
 2678              	.LBB224:
 2679              	.LBB225:
 505:lib/BTT/src/Statistics.c **** }
 2680              		.loc 1 505 19 view .LVU792
 2681 0006 9FED28AB 		vldr.64	d10, .L199
 2682              	.LBE225:
 2683              	.LBE224:
 511:lib/BTT/src/Statistics.c ****   double     u, v, r;
 512:lib/BTT/src/Statistics.c ****   
 513:lib/BTT/src/Statistics.c ****   do{
 514:lib/BTT/src/Statistics.c ****     u = 2 * statistics_random_flat() - 1;
 2684              		.loc 1 514 7 view .LVU793
 2685 000a B0EE009B 		vmov.f64	d9, #2.0e+0
 2686 000e BFEE008B 		vmov.f64	d8, #-1.0e+0
 510:lib/BTT/src/Statistics.c ****   double     u, v, r;
 2687              		.loc 1 510 1 view .LVU794
 2688 0012 B0EE40BB 		vmov.f64	d11, d0
 2689 0016 B0EE41CB 		vmov.f64	d12, d1
 2690              	.LVL161:
 2691              	.L196:
 511:lib/BTT/src/Statistics.c ****   double     u, v, r;
 2692              		.loc 1 511 3 is_stmt 1 discriminator 3 view .LVU795
 513:lib/BTT/src/Statistics.c ****     u = 2 * statistics_random_flat() - 1;
 2693              		.loc 1 513 3 discriminator 3 view .LVU796
 2694              		.loc 1 514 5 discriminator 3 view .LVU797
 2695              	.LBB229:
 2696              	.LBI224:
 503:lib/BTT/src/Statistics.c **** {
 2697              		.loc 1 503 12 discriminator 3 view .LVU798
 2698              	.LBB226:
 505:lib/BTT/src/Statistics.c **** }
 2699              		.loc 1 505 3 discriminator 3 view .LVU799
 505:lib/BTT/src/Statistics.c **** }
 2700              		.loc 1 505 10 is_stmt 0 discriminator 3 view .LVU800
 2701 001a FFF7FEFF 		bl	random
 2702              	.LVL162:
 505:lib/BTT/src/Statistics.c **** }
 2703              		.loc 1 505 19 discriminator 3 view .LVU801
 2704 001e 07EE900A 		vmov	s15, r0	@ int
 2705              	.LBE226:
 2706              	.LBE229:
 2707              		.loc 1 514 7 discriminator 3 view .LVU802
 2708 0022 B0EE48EB 		vmov.f64	d14, d8
 2709              	.LBB230:
 2710              	.LBB227:
 505:lib/BTT/src/Statistics.c **** }
 2711              		.loc 1 505 19 discriminator 3 view .LVU803
 2712 0026 B8EEE77B 		vcvt.f64.s32	d7, s15
 2713              	.LBE227:
 2714              	.LBE230:
 515:lib/BTT/src/Statistics.c ****     v = 2 * statistics_random_flat() - 1;
 2715              		.loc 1 515 7 discriminator 3 view .LVU804
 2716 002a B0EE48DB 		vmov.f64	d13, d8
 2717              	.LBB231:
 2718              	.LBB228:
 505:lib/BTT/src/Statistics.c **** }
ARM GAS  /var/folders/lw/_hmdf9396f92znj902yw3qj00000gn/T//ccbdwRJx.s 			page 65


 2719              		.loc 1 505 19 discriminator 3 view .LVU805
 2720 002e 87EE0A6B 		vdiv.f64	d6, d7, d10
 2721              	.LBE228:
 2722              	.LBE231:
 514:lib/BTT/src/Statistics.c ****     v = 2 * statistics_random_flat() - 1;
 2723              		.loc 1 514 7 discriminator 3 view .LVU806
 2724 0032 A6EE09EB 		vfma.f64	d14, d6, d9
 2725              	.LVL163:
 2726              		.loc 1 515 5 is_stmt 1 discriminator 3 view .LVU807
 2727              	.LBB232:
 2728              	.LBI232:
 503:lib/BTT/src/Statistics.c **** {
 2729              		.loc 1 503 12 discriminator 3 view .LVU808
 2730              	.LBB233:
 505:lib/BTT/src/Statistics.c **** }
 2731              		.loc 1 505 3 discriminator 3 view .LVU809
 505:lib/BTT/src/Statistics.c **** }
 2732              		.loc 1 505 10 is_stmt 0 discriminator 3 view .LVU810
 2733 0036 FFF7FEFF 		bl	random
 2734              	.LVL164:
 505:lib/BTT/src/Statistics.c **** }
 2735              		.loc 1 505 19 discriminator 3 view .LVU811
 2736 003a 07EE900A 		vmov	s15, r0	@ int
 2737 003e B8EEE77B 		vcvt.f64.s32	d7, s15
 2738              	.LBE233:
 2739              	.LBE232:
 516:lib/BTT/src/Statistics.c ****     r = u*u + v*v;
 517:lib/BTT/src/Statistics.c ****   }while(r == 0 || r > 1);
 2740              		.loc 1 517 17 discriminator 3 view .LVU812
 2741 0042 B7EE006B 		vmov.f64	d6, #1.0e+0
 2742              	.LBB235:
 2743              	.LBB234:
 505:lib/BTT/src/Statistics.c **** }
 2744              		.loc 1 505 19 discriminator 3 view .LVU813
 2745 0046 87EE0A5B 		vdiv.f64	d5, d7, d10
 2746              	.LBE234:
 2747              	.LBE235:
 515:lib/BTT/src/Statistics.c ****     r = u*u + v*v;
 2748              		.loc 1 515 7 discriminator 3 view .LVU814
 2749 004a A5EE09DB 		vfma.f64	d13, d5, d9
 2750              	.LVL165:
 516:lib/BTT/src/Statistics.c ****     r = u*u + v*v;
 2751              		.loc 1 516 5 is_stmt 1 discriminator 3 view .LVU815
 516:lib/BTT/src/Statistics.c ****     r = u*u + v*v;
 2752              		.loc 1 516 16 is_stmt 0 discriminator 3 view .LVU816
 2753 004e 2DEE0DDB 		vmul.f64	d13, d13, d13
 2754              	.LVL166:
 516:lib/BTT/src/Statistics.c ****     r = u*u + v*v;
 2755              		.loc 1 516 7 discriminator 3 view .LVU817
 2756 0052 AEEE0EDB 		vfma.f64	d13, d14, d14
 2757              	.LVL167:
 2758              		.loc 1 517 9 is_stmt 1 discriminator 3 view .LVU818
 2759              		.loc 1 517 3 is_stmt 0 discriminator 3 view .LVU819
 2760 0056 B5EE40DB 		vcmp.f64	d13, #0
 2761 005a F1EE10FA 		vmrs	APSR_nzcv, FPSCR
 2762 005e DCD0     		beq	.L196
 2763              		.loc 1 517 17 discriminator 2 view .LVU820
ARM GAS  /var/folders/lw/_hmdf9396f92znj902yw3qj00000gn/T//ccbdwRJx.s 			page 66


 2764 0060 B4EEC6DB 		vcmpe.f64	d13, d6
 2765 0064 F1EE10FA 		vmrs	APSR_nzcv, FPSCR
 2766 0068 D7DC     		bgt	.L196
 518:lib/BTT/src/Statistics.c **** 
 519:lib/BTT/src/Statistics.c ****   double     c = sqrt(-2 * log(r) / r);
 2767              		.loc 1 519 3 is_stmt 1 view .LVU821
 2768              		.loc 1 519 28 is_stmt 0 view .LVU822
 2769 006a B0EE4D0B 		vmov.f64	d0, d13
 2770 006e FFF7FEFF 		bl	log
 2771              	.LVL168:
 2772              		.loc 1 519 26 view .LVU823
 2773 0072 B8EE007B 		vmov.f64	d7, #-2.0e+0
 2774 0076 20EE070B 		vmul.f64	d0, d0, d7
 2775              		.loc 1 519 18 view .LVU824
 2776 007a 80EE0D7B 		vdiv.f64	d7, d0, d13
 2777 007e B5EE407B 		vcmp.f64	d7, #0
 2778 0082 F1EE10FA 		vmrs	APSR_nzcv, FPSCR
 2779 0086 0AD4     		bmi	.L197
 2780 0088 B1EEC70B 		vsqrt.f64	d0, d7
 2781              	.L194:
 520:lib/BTT/src/Statistics.c ****   return mean + u * c * std_dev;
 2782              		.loc 1 520 3 is_stmt 1 view .LVU825
 2783              		.loc 1 520 19 is_stmt 0 view .LVU826
 2784 008c 2EEE00EB 		vmul.f64	d14, d14, d0
 2785              	.LVL169:
 521:lib/BTT/src/Statistics.c **** }
 2786              		.loc 1 521 1 view .LVU827
 2787 0090 B0EE4B0B 		vmov.f64	d0, d11
 2788 0094 AEEE0C0B 		vfma.f64	d0, d14, d12
 2789 0098 BDEC0E8B 		vldm	sp!, {d8-d14}
 2790              		.cfi_remember_state
 2791              		.cfi_restore 92
 2792              		.cfi_restore 93
 2793              		.cfi_restore 90
 2794              		.cfi_restore 91
 2795              		.cfi_restore 88
 2796              		.cfi_restore 89
 2797              		.cfi_restore 86
 2798              		.cfi_restore 87
 2799              		.cfi_restore 84
 2800              		.cfi_restore 85
 2801              		.cfi_restore 82
 2802              		.cfi_restore 83
 2803              		.cfi_restore 80
 2804              		.cfi_restore 81
 2805              		.cfi_def_cfa_offset 8
 2806              	.LVL170:
 2807              		.loc 1 521 1 view .LVU828
 2808 009c 08BD     		pop	{r3, pc}
 2809              	.LVL171:
 2810              	.L197:
 2811              		.cfi_restore_state
 519:lib/BTT/src/Statistics.c ****   return mean + u * c * std_dev;
 2812              		.loc 1 519 18 view .LVU829
 2813 009e B0EE470B 		vmov.f64	d0, d7
 2814 00a2 FFF7FEFF 		bl	sqrt
 2815              	.LVL172:
ARM GAS  /var/folders/lw/_hmdf9396f92znj902yw3qj00000gn/T//ccbdwRJx.s 			page 67


 2816 00a6 F1E7     		b	.L194
 2817              	.L200:
 2818              		.align	3
 2819              	.L199:
 2820 00a8 0000C0FF 		.word	-4194304
 2821 00ac FFFFDF41 		.word	1105199103
 2822              		.cfi_endproc
 2823              	.LFE361:
 2825              		.section	.text.statistics_random_cauchy,"ax",%progbits
 2826              		.align	1
 2827              		.p2align 2,,3
 2828              		.global	statistics_random_cauchy
 2829              		.syntax unified
 2830              		.thumb
 2831              		.thumb_func
 2833              	statistics_random_cauchy:
 2834              	.LVL173:
 2835              	.LFB362:
 522:lib/BTT/src/Statistics.c **** 
 523:lib/BTT/src/Statistics.c **** /*--------------------------------------------------------------------*/
 524:lib/BTT/src/Statistics.c **** double     statistics_random_cauchy(double peak_location, double half_width_at_half_maximum)
 525:lib/BTT/src/Statistics.c **** {
 2836              		.loc 1 525 1 is_stmt 1 view -0
 2837              		.cfi_startproc
 2838              		@ args = 0, pretend = 0, frame = 0
 2839              		@ frame_needed = 0, uses_anonymous_args = 0
 526:lib/BTT/src/Statistics.c ****   double result = statistics_random_flat();
 2840              		.loc 1 526 3 view .LVU831
 2841              	.LBB236:
 2842              	.LBI236:
 503:lib/BTT/src/Statistics.c **** {
 2843              		.loc 1 503 12 view .LVU832
 2844              	.LBB237:
 505:lib/BTT/src/Statistics.c **** }
 2845              		.loc 1 505 3 view .LVU833
 2846              	.LBE237:
 2847              	.LBE236:
 525:lib/BTT/src/Statistics.c ****   double result = statistics_random_flat();
 2848              		.loc 1 525 1 is_stmt 0 view .LVU834
 2849 0000 08B5     		push	{r3, lr}
 2850              		.cfi_def_cfa_offset 8
 2851              		.cfi_offset 3, -8
 2852              		.cfi_offset 14, -4
 2853 0002 2DED048B 		vpush.64	{d8, d9}
 2854              		.cfi_def_cfa_offset 24
 2855              		.cfi_offset 80, -24
 2856              		.cfi_offset 81, -20
 2857              		.cfi_offset 82, -16
 2858              		.cfi_offset 83, -12
 525:lib/BTT/src/Statistics.c ****   double result = statistics_random_flat();
 2859              		.loc 1 525 1 view .LVU835
 2860 0006 B0EE419B 		vmov.f64	d9, d1
 2861 000a B0EE408B 		vmov.f64	d8, d0
 2862              	.LBB242:
 2863              	.LBB238:
 505:lib/BTT/src/Statistics.c **** }
 2864              		.loc 1 505 10 view .LVU836
ARM GAS  /var/folders/lw/_hmdf9396f92znj902yw3qj00000gn/T//ccbdwRJx.s 			page 68


 2865 000e FFF7FEFF 		bl	random
 2866              	.LVL174:
 505:lib/BTT/src/Statistics.c **** }
 2867              		.loc 1 505 10 view .LVU837
 2868              	.LBE238:
 2869              	.LBE242:
 527:lib/BTT/src/Statistics.c ****   result -= 0.5;
 2870              		.loc 1 527 3 is_stmt 1 view .LVU838
 2871              	.LBB243:
 2872              	.LBB239:
 505:lib/BTT/src/Statistics.c **** }
 2873              		.loc 1 505 19 is_stmt 0 view .LVU839
 2874 0012 07EE900A 		vmov	s15, r0	@ int
 2875              	.LBE239:
 2876              	.LBE243:
 2877              		.loc 1 527 10 view .LVU840
 2878 0016 B6EE005B 		vmov.f64	d5, #5.0e-1
 2879              	.LBB244:
 2880              	.LBB240:
 505:lib/BTT/src/Statistics.c **** }
 2881              		.loc 1 505 19 view .LVU841
 2882 001a 9FED0B4B 		vldr.64	d4, .L203
 2883 001e B8EEE76B 		vcvt.f64.s32	d6, s15
 2884              	.LBE240:
 2885              	.LBE244:
 528:lib/BTT/src/Statistics.c ****   result *= M_PI;
 2886              		.loc 1 528 10 view .LVU842
 2887 0022 9FED0B0B 		vldr.64	d0, .L203+8
 2888              	.LBB245:
 2889              	.LBB241:
 505:lib/BTT/src/Statistics.c **** }
 2890              		.loc 1 505 19 view .LVU843
 2891 0026 86EE047B 		vdiv.f64	d7, d6, d4
 2892              	.LVL175:
 505:lib/BTT/src/Statistics.c **** }
 2893              		.loc 1 505 19 view .LVU844
 2894              	.LBE241:
 2895              	.LBE245:
 527:lib/BTT/src/Statistics.c ****   result -= 0.5;
 2896              		.loc 1 527 10 view .LVU845
 2897 002a 37EE457B 		vsub.f64	d7, d7, d5
 2898              	.LVL176:
 2899              		.loc 1 528 3 is_stmt 1 view .LVU846
 529:lib/BTT/src/Statistics.c ****   //if(fabs(result) == M_PI)
 530:lib/BTT/src/Statistics.c ****     //result = 0;
 531:lib/BTT/src/Statistics.c ****   //else
 532:lib/BTT/src/Statistics.c ****     result = tan(result);
 2900              		.loc 1 532 5 view .LVU847
 2901              		.loc 1 532 14 is_stmt 0 view .LVU848
 2902 002e 27EE000B 		vmul.f64	d0, d7, d0
 2903              	.LVL177:
 2904              		.loc 1 532 14 view .LVU849
 2905 0032 FFF7FEFF 		bl	tan
 2906              	.LVL178:
 533:lib/BTT/src/Statistics.c ****   
 534:lib/BTT/src/Statistics.c ****   result *= half_width_at_half_maximum;
 2907              		.loc 1 534 3 is_stmt 1 view .LVU850
ARM GAS  /var/folders/lw/_hmdf9396f92znj902yw3qj00000gn/T//ccbdwRJx.s 			page 69


 535:lib/BTT/src/Statistics.c ****   result += peak_location;
 2908              		.loc 1 535 3 view .LVU851
 536:lib/BTT/src/Statistics.c ****   return result;
 2909              		.loc 1 536 3 view .LVU852
 537:lib/BTT/src/Statistics.c **** }
 2910              		.loc 1 537 1 is_stmt 0 view .LVU853
 2911 0036 A0EE098B 		vfma.f64	d8, d0, d9
 2912              	.LVL179:
 2913              		.loc 1 537 1 view .LVU854
 2914 003a B0EE480B 		vmov.f64	d0, d8
 2915 003e BDEC048B 		vldm	sp!, {d8-d9}
 2916              		.cfi_restore 82
 2917              		.cfi_restore 83
 2918              		.cfi_restore 80
 2919              		.cfi_restore 81
 2920              		.cfi_def_cfa_offset 8
 2921              	.LVL180:
 2922              		.loc 1 537 1 view .LVU855
 2923 0042 08BD     		pop	{r3, pc}
 2924              	.L204:
 2925 0044 AFF30080 		.align	3
 2926              	.L203:
 2927 0048 0000C0FF 		.word	-4194304
 2928 004c FFFFDF41 		.word	1105199103
 2929 0050 182D4454 		.word	1413754136
 2930 0054 FB210940 		.word	1074340347
 2931              		.cfi_endproc
 2932              	.LFE362:
 2934              		.text
 2935              	.Letext0:
 2936              		.file 2 "lib/BTT/src/Statistics.h"
 2937              		.file 3 "/Library/DaisyToolchain/0.2.0/arm/arm-none-eabi/include/math.h"
 2938              		.file 4 "/Library/DaisyToolchain/0.2.0/arm/arm-none-eabi/include/stdlib.h"
ARM GAS  /var/folders/lw/_hmdf9396f92znj902yw3qj00000gn/T//ccbdwRJx.s 			page 70


DEFINED SYMBOLS
                            *ABS*:0000000000000000 Statistics.c
/var/folders/lw/_hmdf9396f92znj902yw3qj00000gn/T//ccbdwRJx.s:19     .text.online_average_new:0000000000000000 $t
/var/folders/lw/_hmdf9396f92znj902yw3qj00000gn/T//ccbdwRJx.s:26     .text.online_average_new:0000000000000000 online_average_new
/var/folders/lw/_hmdf9396f92znj902yw3qj00000gn/T//ccbdwRJx.s:79     .text.online_average_init:0000000000000000 $t
/var/folders/lw/_hmdf9396f92znj902yw3qj00000gn/T//ccbdwRJx.s:86     .text.online_average_init:0000000000000000 online_average_init
/var/folders/lw/_hmdf9396f92znj902yw3qj00000gn/T//ccbdwRJx.s:123    .text.online_average_destroy:0000000000000000 $t
/var/folders/lw/_hmdf9396f92znj902yw3qj00000gn/T//ccbdwRJx.s:130    .text.online_average_destroy:0000000000000000 online_average_destroy
/var/folders/lw/_hmdf9396f92znj902yw3qj00000gn/T//ccbdwRJx.s:168    .text.online_average_n:0000000000000000 $t
/var/folders/lw/_hmdf9396f92znj902yw3qj00000gn/T//ccbdwRJx.s:175    .text.online_average_n:0000000000000000 online_average_n
/var/folders/lw/_hmdf9396f92znj902yw3qj00000gn/T//ccbdwRJx.s:193    .text.online_average_mean:0000000000000000 $t
/var/folders/lw/_hmdf9396f92znj902yw3qj00000gn/T//ccbdwRJx.s:200    .text.online_average_mean:0000000000000000 online_average_mean
/var/folders/lw/_hmdf9396f92znj902yw3qj00000gn/T//ccbdwRJx.s:216    .text.online_average_variance:0000000000000000 $t
/var/folders/lw/_hmdf9396f92znj902yw3qj00000gn/T//ccbdwRJx.s:223    .text.online_average_variance:0000000000000000 online_average_variance
/var/folders/lw/_hmdf9396f92znj902yw3qj00000gn/T//ccbdwRJx.s:239    .text.online_average_std_dev:0000000000000000 $t
/var/folders/lw/_hmdf9396f92znj902yw3qj00000gn/T//ccbdwRJx.s:246    .text.online_average_std_dev:0000000000000000 online_average_std_dev
/var/folders/lw/_hmdf9396f92znj902yw3qj00000gn/T//ccbdwRJx.s:273    .text.online_average_update:0000000000000000 $t
/var/folders/lw/_hmdf9396f92znj902yw3qj00000gn/T//ccbdwRJx.s:280    .text.online_average_update:0000000000000000 online_average_update
/var/folders/lw/_hmdf9396f92znj902yw3qj00000gn/T//ccbdwRJx.s:362    .text.moving_average_init:0000000000000000 $t
/var/folders/lw/_hmdf9396f92znj902yw3qj00000gn/T//ccbdwRJx.s:369    .text.moving_average_init:0000000000000000 moving_average_init
/var/folders/lw/_hmdf9396f92znj902yw3qj00000gn/T//ccbdwRJx.s:442    .text.moving_average_destroy:0000000000000000 $t
/var/folders/lw/_hmdf9396f92znj902yw3qj00000gn/T//ccbdwRJx.s:449    .text.moving_average_destroy:0000000000000000 moving_average_destroy
/var/folders/lw/_hmdf9396f92znj902yw3qj00000gn/T//ccbdwRJx.s:517    .text.moving_average_new:0000000000000000 $t
/var/folders/lw/_hmdf9396f92znj902yw3qj00000gn/T//ccbdwRJx.s:524    .text.moving_average_new:0000000000000000 moving_average_new
/var/folders/lw/_hmdf9396f92znj902yw3qj00000gn/T//ccbdwRJx.s:740    .text.moving_average_N:0000000000000000 $t
/var/folders/lw/_hmdf9396f92znj902yw3qj00000gn/T//ccbdwRJx.s:747    .text.moving_average_N:0000000000000000 moving_average_N
/var/folders/lw/_hmdf9396f92znj902yw3qj00000gn/T//ccbdwRJx.s:765    .text.moving_average_n:0000000000000000 $t
/var/folders/lw/_hmdf9396f92znj902yw3qj00000gn/T//ccbdwRJx.s:772    .text.moving_average_n:0000000000000000 moving_average_n
/var/folders/lw/_hmdf9396f92znj902yw3qj00000gn/T//ccbdwRJx.s:799    .text.moving_average_mean:0000000000000000 $t
/var/folders/lw/_hmdf9396f92znj902yw3qj00000gn/T//ccbdwRJx.s:806    .text.moving_average_mean:0000000000000000 moving_average_mean
/var/folders/lw/_hmdf9396f92znj902yw3qj00000gn/T//ccbdwRJx.s:822    .text.moving_average_variance:0000000000000000 $t
/var/folders/lw/_hmdf9396f92znj902yw3qj00000gn/T//ccbdwRJx.s:829    .text.moving_average_variance:0000000000000000 moving_average_variance
/var/folders/lw/_hmdf9396f92znj902yw3qj00000gn/T//ccbdwRJx.s:845    .text.moving_average_std_dev:0000000000000000 $t
/var/folders/lw/_hmdf9396f92znj902yw3qj00000gn/T//ccbdwRJx.s:852    .text.moving_average_std_dev:0000000000000000 moving_average_std_dev
/var/folders/lw/_hmdf9396f92znj902yw3qj00000gn/T//ccbdwRJx.s:879    .text.moving_average_update:0000000000000000 $t
/var/folders/lw/_hmdf9396f92znj902yw3qj00000gn/T//ccbdwRJx.s:886    .text.moving_average_update:0000000000000000 moving_average_update
/var/folders/lw/_hmdf9396f92znj902yw3qj00000gn/T//ccbdwRJx.s:1034   .text.online_regression_new:0000000000000000 $t
/var/folders/lw/_hmdf9396f92znj902yw3qj00000gn/T//ccbdwRJx.s:1041   .text.online_regression_new:0000000000000000 online_regression_new
/var/folders/lw/_hmdf9396f92znj902yw3qj00000gn/T//ccbdwRJx.s:1107   .text.online_regression_init:0000000000000000 $t
/var/folders/lw/_hmdf9396f92znj902yw3qj00000gn/T//ccbdwRJx.s:1114   .text.online_regression_init:0000000000000000 online_regression_init
/var/folders/lw/_hmdf9396f92znj902yw3qj00000gn/T//ccbdwRJx.s:1162   .text.online_regression_destroy:0000000000000000 $t
/var/folders/lw/_hmdf9396f92znj902yw3qj00000gn/T//ccbdwRJx.s:1169   .text.online_regression_destroy:0000000000000000 online_regression_destroy
/var/folders/lw/_hmdf9396f92znj902yw3qj00000gn/T//ccbdwRJx.s:1192   .text.online_regression_n:0000000000000000 $t
/var/folders/lw/_hmdf9396f92znj902yw3qj00000gn/T//ccbdwRJx.s:1199   .text.online_regression_n:0000000000000000 online_regression_n
/var/folders/lw/_hmdf9396f92znj902yw3qj00000gn/T//ccbdwRJx.s:1217   .text.online_regression_covariance:0000000000000000 $t
/var/folders/lw/_hmdf9396f92znj902yw3qj00000gn/T//ccbdwRJx.s:1224   .text.online_regression_covariance:0000000000000000 online_regression_covariance
/var/folders/lw/_hmdf9396f92znj902yw3qj00000gn/T//ccbdwRJx.s:1240   .text.online_regression_slope:0000000000000000 $t
/var/folders/lw/_hmdf9396f92znj902yw3qj00000gn/T//ccbdwRJx.s:1247   .text.online_regression_slope:0000000000000000 online_regression_slope
/var/folders/lw/_hmdf9396f92znj902yw3qj00000gn/T//ccbdwRJx.s:1263   .text.online_regression_y_intercept:0000000000000000 $t
/var/folders/lw/_hmdf9396f92znj902yw3qj00000gn/T//ccbdwRJx.s:1270   .text.online_regression_y_intercept:0000000000000000 online_regression_y_intercept
/var/folders/lw/_hmdf9396f92znj902yw3qj00000gn/T//ccbdwRJx.s:1286   .text.online_regression_r_squared:0000000000000000 $t
/var/folders/lw/_hmdf9396f92znj902yw3qj00000gn/T//ccbdwRJx.s:1293   .text.online_regression_r_squared:0000000000000000 online_regression_r_squared
/var/folders/lw/_hmdf9396f92znj902yw3qj00000gn/T//ccbdwRJx.s:1309   .text.online_regression_update:0000000000000000 $t
/var/folders/lw/_hmdf9396f92znj902yw3qj00000gn/T//ccbdwRJx.s:1316   .text.online_regression_update:0000000000000000 online_regression_update
/var/folders/lw/_hmdf9396f92znj902yw3qj00000gn/T//ccbdwRJx.s:1471   .text.adaptive_threshold_new:0000000000000000 $t
/var/folders/lw/_hmdf9396f92znj902yw3qj00000gn/T//ccbdwRJx.s:1478   .text.adaptive_threshold_new:0000000000000000 adaptive_threshold_new
/var/folders/lw/_hmdf9396f92znj902yw3qj00000gn/T//ccbdwRJx.s:1667   .text.adaptive_threshold_new:0000000000000078 $d
ARM GAS  /var/folders/lw/_hmdf9396f92znj902yw3qj00000gn/T//ccbdwRJx.s 			page 71


/var/folders/lw/_hmdf9396f92znj902yw3qj00000gn/T//ccbdwRJx.s:1676   .text.adaptive_threshold_init:0000000000000000 $t
/var/folders/lw/_hmdf9396f92znj902yw3qj00000gn/T//ccbdwRJx.s:1683   .text.adaptive_threshold_init:0000000000000000 adaptive_threshold_init
/var/folders/lw/_hmdf9396f92znj902yw3qj00000gn/T//ccbdwRJx.s:1817   .text.adaptive_threshold_clear:0000000000000000 $t
/var/folders/lw/_hmdf9396f92znj902yw3qj00000gn/T//ccbdwRJx.s:1824   .text.adaptive_threshold_clear:0000000000000000 adaptive_threshold_clear
/var/folders/lw/_hmdf9396f92znj902yw3qj00000gn/T//ccbdwRJx.s:1920   .text.adaptive_threshold_destroy:0000000000000000 $t
/var/folders/lw/_hmdf9396f92znj902yw3qj00000gn/T//ccbdwRJx.s:1927   .text.adaptive_threshold_destroy:0000000000000000 adaptive_threshold_destroy
/var/folders/lw/_hmdf9396f92znj902yw3qj00000gn/T//ccbdwRJx.s:2031   .text.adaptive_threshold_smoothing:0000000000000000 $t
/var/folders/lw/_hmdf9396f92znj902yw3qj00000gn/T//ccbdwRJx.s:2038   .text.adaptive_threshold_smoothing:0000000000000000 adaptive_threshold_smoothing
/var/folders/lw/_hmdf9396f92znj902yw3qj00000gn/T//ccbdwRJx.s:2054   .text.adaptive_threshold_set_smoothing:0000000000000000 $t
/var/folders/lw/_hmdf9396f92znj902yw3qj00000gn/T//ccbdwRJx.s:2061   .text.adaptive_threshold_set_smoothing:0000000000000000 adaptive_threshold_set_smoothing
/var/folders/lw/_hmdf9396f92znj902yw3qj00000gn/T//ccbdwRJx.s:2099   .text.adaptive_threshold_set_smoothing:0000000000000030 $d
/var/folders/lw/_hmdf9396f92znj902yw3qj00000gn/T//ccbdwRJx.s:2105   .text.adaptive_threshold_threshold:0000000000000000 $t
/var/folders/lw/_hmdf9396f92znj902yw3qj00000gn/T//ccbdwRJx.s:2112   .text.adaptive_threshold_threshold:0000000000000000 adaptive_threshold_threshold
/var/folders/lw/_hmdf9396f92znj902yw3qj00000gn/T//ccbdwRJx.s:2128   .text.adaptive_threshold_threshold_value:0000000000000000 $t
/var/folders/lw/_hmdf9396f92znj902yw3qj00000gn/T//ccbdwRJx.s:2135   .text.adaptive_threshold_threshold_value:0000000000000000 adaptive_threshold_threshold_value
/var/folders/lw/_hmdf9396f92znj902yw3qj00000gn/T//ccbdwRJx.s:2232   .text.adaptive_threshold_set_threshold:0000000000000000 $t
/var/folders/lw/_hmdf9396f92znj902yw3qj00000gn/T//ccbdwRJx.s:2239   .text.adaptive_threshold_set_threshold:0000000000000000 adaptive_threshold_set_threshold
/var/folders/lw/_hmdf9396f92znj902yw3qj00000gn/T//ccbdwRJx.s:2256   .text.adaptive_threshold_threshold_min:0000000000000000 $t
/var/folders/lw/_hmdf9396f92znj902yw3qj00000gn/T//ccbdwRJx.s:2263   .text.adaptive_threshold_threshold_min:0000000000000000 adaptive_threshold_threshold_min
/var/folders/lw/_hmdf9396f92znj902yw3qj00000gn/T//ccbdwRJx.s:2279   .text.adaptive_threshold_set_threshold_min:0000000000000000 $t
/var/folders/lw/_hmdf9396f92znj902yw3qj00000gn/T//ccbdwRJx.s:2286   .text.adaptive_threshold_set_threshold_min:0000000000000000 adaptive_threshold_set_threshold_min
/var/folders/lw/_hmdf9396f92znj902yw3qj00000gn/T//ccbdwRJx.s:2303   .text.adaptive_threshold_onset_signal:0000000000000000 $t
/var/folders/lw/_hmdf9396f92znj902yw3qj00000gn/T//ccbdwRJx.s:2310   .text.adaptive_threshold_onset_signal:0000000000000000 adaptive_threshold_onset_signal
/var/folders/lw/_hmdf9396f92znj902yw3qj00000gn/T//ccbdwRJx.s:2326   .text.adaptive_threshold_mean:0000000000000000 $t
/var/folders/lw/_hmdf9396f92znj902yw3qj00000gn/T//ccbdwRJx.s:2333   .text.adaptive_threshold_mean:0000000000000000 adaptive_threshold_mean
/var/folders/lw/_hmdf9396f92znj902yw3qj00000gn/T//ccbdwRJx.s:2358   .text.adaptive_threshold_update:0000000000000000 $t
/var/folders/lw/_hmdf9396f92znj902yw3qj00000gn/T//ccbdwRJx.s:2365   .text.adaptive_threshold_update:0000000000000000 adaptive_threshold_update
/var/folders/lw/_hmdf9396f92znj902yw3qj00000gn/T//ccbdwRJx.s:2597   .text.adaptive_threshold_update:00000000000000e0 $d
/var/folders/lw/_hmdf9396f92znj902yw3qj00000gn/T//ccbdwRJx.s:2605   .text.statistics_random_flat:0000000000000000 $t
/var/folders/lw/_hmdf9396f92znj902yw3qj00000gn/T//ccbdwRJx.s:2612   .text.statistics_random_flat:0000000000000000 statistics_random_flat
/var/folders/lw/_hmdf9396f92znj902yw3qj00000gn/T//ccbdwRJx.s:2637   .text.statistics_random_flat:0000000000000018 $d
/var/folders/lw/_hmdf9396f92znj902yw3qj00000gn/T//ccbdwRJx.s:2643   .text.statistics_random_normal:0000000000000000 $t
/var/folders/lw/_hmdf9396f92znj902yw3qj00000gn/T//ccbdwRJx.s:2650   .text.statistics_random_normal:0000000000000000 statistics_random_normal
/var/folders/lw/_hmdf9396f92znj902yw3qj00000gn/T//ccbdwRJx.s:2820   .text.statistics_random_normal:00000000000000a8 $d
/var/folders/lw/_hmdf9396f92znj902yw3qj00000gn/T//ccbdwRJx.s:2826   .text.statistics_random_cauchy:0000000000000000 $t
/var/folders/lw/_hmdf9396f92znj902yw3qj00000gn/T//ccbdwRJx.s:2833   .text.statistics_random_cauchy:0000000000000000 statistics_random_cauchy
/var/folders/lw/_hmdf9396f92znj902yw3qj00000gn/T//ccbdwRJx.s:2927   .text.statistics_random_cauchy:0000000000000048 $d

UNDEFINED SYMBOLS
calloc
free
sqrt
random
log
tan
