ARM GAS  /var/folders/lw/_hmdf9396f92znj902yw3qj00000gn/T//ccGkIGkl.s 			page 1


   1              		.cpu cortex-m7
   2              		.arch armv7e-m
   3              		.fpu fpv5-d16
   4              		.eabi_attribute 28, 1
   5              		.eabi_attribute 20, 1
   6              		.eabi_attribute 21, 1
   7              		.eabi_attribute 23, 3
   8              		.eabi_attribute 24, 1
   9              		.eabi_attribute 25, 1
  10              		.eabi_attribute 26, 1
  11              		.eabi_attribute 30, 4
  12              		.eabi_attribute 34, 1
  13              		.eabi_attribute 18, 4
  14              		.file	"Statistics.c"
  15              		.text
  16              	.Ltext0:
  17              		.cfi_sections	.debug_frame
  18              		.section	.text.online_average_init,"ax",%progbits
  19              		.align	1
  20              		.global	online_average_init
  21              		.syntax unified
  22              		.thumb
  23              		.thumb_func
  25              	online_average_init:
  26              	.LVL0:
  27              	.LFB321:
  28              		.file 1 "lib/BTT/src/Statistics.c"
   1:lib/BTT/src/Statistics.c **** /*-____--_--------_---_-----_---_--------------------------------------- 
   2:lib/BTT/src/Statistics.c ****   / ___|| |_ __ _| |_(_)___| |_(_) ___ ___   ___ 
   3:lib/BTT/src/Statistics.c ****   \___ \| __/ _` | __| / __| __| |/ __/ __| / __|
   4:lib/BTT/src/Statistics.c ****    ___) | || (_| | |_| \__ \ |_| | (__\__ \| (__ 
   5:lib/BTT/src/Statistics.c ****   |____/ \__\__,_|\__|_|___/\__|_|\___|___(_)___|
   6:lib/BTT/src/Statistics.c **** ------------------------------------------------------------------------
   7:lib/BTT/src/Statistics.c **** 
   8:lib/BTT/src/Statistics.c **** ----------------------------------------------------------------------*/
   9:lib/BTT/src/Statistics.c **** #include "Statistics.h"
  10:lib/BTT/src/Statistics.c **** 
  11:lib/BTT/src/Statistics.c **** #include <math.h>
  12:lib/BTT/src/Statistics.c **** #include <stdlib.h>
  13:lib/BTT/src/Statistics.c **** #include <string.h> //memset, memcpy
  14:lib/BTT/src/Statistics.c **** 
  15:lib/BTT/src/Statistics.c **** /*--------------------------------------------------------------------*/
  16:lib/BTT/src/Statistics.c **** /*--___-------_-_-------------------------------------------------------
  17:lib/BTT/src/Statistics.c ****    / _ \ _ _ | (_)_ _  ___    /_\__ _____ _ _ __ _ __ _ ___ 
  18:lib/BTT/src/Statistics.c ****   | (_) | ' \| | | ' \/ -_)  / _ \ V / -_) '_/ _` / _` / -_)
  19:lib/BTT/src/Statistics.c ****    \___/|_||_|_|_|_||_\___| /_/ \_\_/\___|_| \__,_\__, \___|
  20:lib/BTT/src/Statistics.c **** --------------------------------------------------|___/-----------------
  21:lib/BTT/src/Statistics.c ****   Calculate the mean and variance of a signal one sample at a time.
  22:lib/BTT/src/Statistics.c **** ----------------------------------------------------------------------*/
  23:lib/BTT/src/Statistics.c **** struct opaque_online_average_struct
  24:lib/BTT/src/Statistics.c **** {
  25:lib/BTT/src/Statistics.c ****   unsigned     n;
  26:lib/BTT/src/Statistics.c ****   double       mean;
  27:lib/BTT/src/Statistics.c ****   double       variance;
  28:lib/BTT/src/Statistics.c ****   double       old_mean;
  29:lib/BTT/src/Statistics.c ****   double       s;
  30:lib/BTT/src/Statistics.c ****   double       old_s;
ARM GAS  /var/folders/lw/_hmdf9396f92znj902yw3qj00000gn/T//ccGkIGkl.s 			page 2


  31:lib/BTT/src/Statistics.c **** };
  32:lib/BTT/src/Statistics.c **** 
  33:lib/BTT/src/Statistics.c **** /*--------------------------------------------------------------------*/
  34:lib/BTT/src/Statistics.c **** OnlineAverage* online_average_new()
  35:lib/BTT/src/Statistics.c **** {
  36:lib/BTT/src/Statistics.c ****   OnlineAverage* self = calloc(1, sizeof(*self));
  37:lib/BTT/src/Statistics.c ****   if(self != NULL)
  38:lib/BTT/src/Statistics.c ****     {
  39:lib/BTT/src/Statistics.c ****       online_average_init(self);
  40:lib/BTT/src/Statistics.c ****     }
  41:lib/BTT/src/Statistics.c ****   return self;
  42:lib/BTT/src/Statistics.c **** }
  43:lib/BTT/src/Statistics.c **** 
  44:lib/BTT/src/Statistics.c **** /*--------------------------------------------------------------------*/
  45:lib/BTT/src/Statistics.c **** void online_average_init(OnlineAverage* self)
  46:lib/BTT/src/Statistics.c **** {
  29              		.loc 1 46 1 view -0
  30              		.cfi_startproc
  31              		@ args = 0, pretend = 0, frame = 0
  32              		@ frame_needed = 0, uses_anonymous_args = 0
  33              		@ link register save eliminated.
  47:lib/BTT/src/Statistics.c ****   self->n          = 0;
  34              		.loc 1 47 3 view .LVU1
  35              		.loc 1 47 20 is_stmt 0 view .LVU2
  36 0000 0023     		movs	r3, #0
  48:lib/BTT/src/Statistics.c ****   self->mean       = 0;
  37              		.loc 1 48 20 view .LVU3
  38 0002 0022     		movs	r2, #0
  47:lib/BTT/src/Statistics.c ****   self->n          = 0;
  39              		.loc 1 47 20 view .LVU4
  40 0004 0360     		str	r3, [r0]
  41              		.loc 1 48 3 is_stmt 1 view .LVU5
  42              		.loc 1 48 20 is_stmt 0 view .LVU6
  43 0006 0023     		movs	r3, #0
  44 0008 C0E90223 		strd	r2, [r0, #8]
  49:lib/BTT/src/Statistics.c ****   self->variance   = 0;
  45              		.loc 1 49 3 is_stmt 1 view .LVU7
  46              		.loc 1 49 20 is_stmt 0 view .LVU8
  47 000c C0E90423 		strd	r2, [r0, #16]
  50:lib/BTT/src/Statistics.c ****   self->old_mean   = 0;
  48              		.loc 1 50 3 is_stmt 1 view .LVU9
  49              		.loc 1 50 20 is_stmt 0 view .LVU10
  50 0010 C0E90623 		strd	r2, [r0, #24]
  51:lib/BTT/src/Statistics.c ****   self->s          = 0;
  51              		.loc 1 51 3 is_stmt 1 view .LVU11
  52              		.loc 1 51 20 is_stmt 0 view .LVU12
  53 0014 C0E90823 		strd	r2, [r0, #32]
  52:lib/BTT/src/Statistics.c ****   self->old_s      = 0;
  54              		.loc 1 52 3 is_stmt 1 view .LVU13
  55              		.loc 1 52 20 is_stmt 0 view .LVU14
  56 0018 C0E90A23 		strd	r2, [r0, #40]
  53:lib/BTT/src/Statistics.c **** }
  57              		.loc 1 53 1 view .LVU15
  58 001c 7047     		bx	lr
  59              		.cfi_endproc
  60              	.LFE321:
  62              		.section	.text.online_average_new,"ax",%progbits
ARM GAS  /var/folders/lw/_hmdf9396f92znj902yw3qj00000gn/T//ccGkIGkl.s 			page 3


  63              		.align	1
  64              		.global	online_average_new
  65              		.syntax unified
  66              		.thumb
  67              		.thumb_func
  69              	online_average_new:
  70              	.LFB320:
  35:lib/BTT/src/Statistics.c ****   OnlineAverage* self = calloc(1, sizeof(*self));
  71              		.loc 1 35 1 is_stmt 1 view -0
  72              		.cfi_startproc
  73              		@ args = 0, pretend = 0, frame = 0
  74              		@ frame_needed = 0, uses_anonymous_args = 0
  36:lib/BTT/src/Statistics.c ****   if(self != NULL)
  75              		.loc 1 36 3 view .LVU17
  36:lib/BTT/src/Statistics.c ****   if(self != NULL)
  76              		.loc 1 36 25 is_stmt 0 view .LVU18
  77 0000 3021     		movs	r1, #48
  78 0002 0120     		movs	r0, #1
  35:lib/BTT/src/Statistics.c ****   OnlineAverage* self = calloc(1, sizeof(*self));
  79              		.loc 1 35 1 view .LVU19
  80 0004 08B5     		push	{r3, lr}
  81              		.cfi_def_cfa_offset 8
  82              		.cfi_offset 3, -8
  83              		.cfi_offset 14, -4
  36:lib/BTT/src/Statistics.c ****   if(self != NULL)
  84              		.loc 1 36 25 view .LVU20
  85 0006 FFF7FEFF 		bl	calloc
  86              	.LVL1:
  37:lib/BTT/src/Statistics.c ****     {
  87              		.loc 1 37 3 is_stmt 1 view .LVU21
  37:lib/BTT/src/Statistics.c ****     {
  88              		.loc 1 37 5 is_stmt 0 view .LVU22
  89 000a 0146     		mov	r1, r0
  90 000c 08B1     		cbz	r0, .L2
  39:lib/BTT/src/Statistics.c ****     }
  91              		.loc 1 39 7 is_stmt 1 view .LVU23
  92 000e FFF7FEFF 		bl	online_average_init
  93              	.LVL2:
  41:lib/BTT/src/Statistics.c **** }
  94              		.loc 1 41 3 view .LVU24
  95              	.L2:
  42:lib/BTT/src/Statistics.c **** 
  96              		.loc 1 42 1 is_stmt 0 view .LVU25
  97 0012 0846     		mov	r0, r1
  98              	.LVL3:
  42:lib/BTT/src/Statistics.c **** 
  99              		.loc 1 42 1 view .LVU26
 100 0014 08BD     		pop	{r3, pc}
 101              		.cfi_endproc
 102              	.LFE320:
 104              		.section	.text.online_average_destroy,"ax",%progbits
 105              		.align	1
 106              		.global	online_average_destroy
 107              		.syntax unified
 108              		.thumb
 109              		.thumb_func
 111              	online_average_destroy:
ARM GAS  /var/folders/lw/_hmdf9396f92znj902yw3qj00000gn/T//ccGkIGkl.s 			page 4


 112              	.LVL4:
 113              	.LFB322:
  54:lib/BTT/src/Statistics.c **** 
  55:lib/BTT/src/Statistics.c **** /*--------------------------------------------------------------------*/
  56:lib/BTT/src/Statistics.c **** OnlineAverage* online_average_destroy(OnlineAverage* self)
  57:lib/BTT/src/Statistics.c **** {
 114              		.loc 1 57 1 is_stmt 1 view -0
 115              		.cfi_startproc
 116              		@ args = 0, pretend = 0, frame = 0
 117              		@ frame_needed = 0, uses_anonymous_args = 0
  58:lib/BTT/src/Statistics.c ****   if(self != NULL)
 118              		.loc 1 58 3 view .LVU28
  57:lib/BTT/src/Statistics.c ****   if(self != NULL)
 119              		.loc 1 57 1 is_stmt 0 view .LVU29
 120 0000 08B5     		push	{r3, lr}
 121              		.cfi_def_cfa_offset 8
 122              		.cfi_offset 3, -8
 123              		.cfi_offset 14, -4
 124              		.loc 1 58 5 view .LVU30
 125 0002 08B1     		cbz	r0, .L8
  59:lib/BTT/src/Statistics.c ****     {
  60:lib/BTT/src/Statistics.c ****       free(self);
 126              		.loc 1 60 7 is_stmt 1 view .LVU31
 127 0004 FFF7FEFF 		bl	free
 128              	.LVL5:
 129              	.L8:
  61:lib/BTT/src/Statistics.c ****     }
  62:lib/BTT/src/Statistics.c ****   return (OnlineAverage*) NULL;
 130              		.loc 1 62 3 view .LVU32
  63:lib/BTT/src/Statistics.c **** }
 131              		.loc 1 63 1 is_stmt 0 view .LVU33
 132 0008 0020     		movs	r0, #0
 133 000a 08BD     		pop	{r3, pc}
 134              		.cfi_endproc
 135              	.LFE322:
 137              		.section	.text.online_average_n,"ax",%progbits
 138              		.align	1
 139              		.global	online_average_n
 140              		.syntax unified
 141              		.thumb
 142              		.thumb_func
 144              	online_average_n:
 145              	.LVL6:
 146              	.LFB323:
  64:lib/BTT/src/Statistics.c **** 
  65:lib/BTT/src/Statistics.c **** /*--------------------------------------------------------------------*/
  66:lib/BTT/src/Statistics.c **** int online_average_n(OnlineAverage* self)
  67:lib/BTT/src/Statistics.c **** {
 147              		.loc 1 67 1 is_stmt 1 view -0
 148              		.cfi_startproc
 149              		@ args = 0, pretend = 0, frame = 0
 150              		@ frame_needed = 0, uses_anonymous_args = 0
 151              		@ link register save eliminated.
  68:lib/BTT/src/Statistics.c ****   return self->n;
 152              		.loc 1 68 3 view .LVU35
  69:lib/BTT/src/Statistics.c **** }
 153              		.loc 1 69 1 is_stmt 0 view .LVU36
ARM GAS  /var/folders/lw/_hmdf9396f92znj902yw3qj00000gn/T//ccGkIGkl.s 			page 5


 154 0000 0068     		ldr	r0, [r0]
 155              	.LVL7:
 156              		.loc 1 69 1 view .LVU37
 157 0002 7047     		bx	lr
 158              		.cfi_endproc
 159              	.LFE323:
 161              		.section	.text.online_average_mean,"ax",%progbits
 162              		.align	1
 163              		.global	online_average_mean
 164              		.syntax unified
 165              		.thumb
 166              		.thumb_func
 168              	online_average_mean:
 169              	.LVL8:
 170              	.LFB324:
  70:lib/BTT/src/Statistics.c **** 
  71:lib/BTT/src/Statistics.c **** /*--------------------------------------------------------------------*/
  72:lib/BTT/src/Statistics.c **** double     online_average_mean(OnlineAverage* self)
  73:lib/BTT/src/Statistics.c **** {
 171              		.loc 1 73 1 is_stmt 1 view -0
 172              		.cfi_startproc
 173              		@ args = 0, pretend = 0, frame = 0
 174              		@ frame_needed = 0, uses_anonymous_args = 0
 175              		@ link register save eliminated.
  74:lib/BTT/src/Statistics.c ****   return self->mean;
 176              		.loc 1 74 3 view .LVU39
  75:lib/BTT/src/Statistics.c **** }
 177              		.loc 1 75 1 is_stmt 0 view .LVU40
 178 0000 90ED020B 		vldr.64	d0, [r0, #8]
 179 0004 7047     		bx	lr
 180              		.cfi_endproc
 181              	.LFE324:
 183              		.section	.text.online_average_variance,"ax",%progbits
 184              		.align	1
 185              		.global	online_average_variance
 186              		.syntax unified
 187              		.thumb
 188              		.thumb_func
 190              	online_average_variance:
 191              	.LVL9:
 192              	.LFB325:
  76:lib/BTT/src/Statistics.c **** 
  77:lib/BTT/src/Statistics.c **** /*--------------------------------------------------------------------*/
  78:lib/BTT/src/Statistics.c **** double     online_average_variance(OnlineAverage* self)
  79:lib/BTT/src/Statistics.c **** {
 193              		.loc 1 79 1 is_stmt 1 view -0
 194              		.cfi_startproc
 195              		@ args = 0, pretend = 0, frame = 0
 196              		@ frame_needed = 0, uses_anonymous_args = 0
 197              		@ link register save eliminated.
  80:lib/BTT/src/Statistics.c ****   return self->variance;
 198              		.loc 1 80 3 view .LVU42
  81:lib/BTT/src/Statistics.c **** }
 199              		.loc 1 81 1 is_stmt 0 view .LVU43
 200 0000 90ED040B 		vldr.64	d0, [r0, #16]
 201 0004 7047     		bx	lr
 202              		.cfi_endproc
ARM GAS  /var/folders/lw/_hmdf9396f92znj902yw3qj00000gn/T//ccGkIGkl.s 			page 6


 203              	.LFE325:
 205              		.section	.text.online_average_std_dev,"ax",%progbits
 206              		.align	1
 207              		.global	online_average_std_dev
 208              		.syntax unified
 209              		.thumb
 210              		.thumb_func
 212              	online_average_std_dev:
 213              	.LVL10:
 214              	.LFB326:
  82:lib/BTT/src/Statistics.c **** 
  83:lib/BTT/src/Statistics.c **** /*--------------------------------------------------------------------*/
  84:lib/BTT/src/Statistics.c **** double     online_average_std_dev(OnlineAverage* self)
  85:lib/BTT/src/Statistics.c **** {
 215              		.loc 1 85 1 is_stmt 1 view -0
 216              		.cfi_startproc
 217              		@ args = 0, pretend = 0, frame = 0
 218              		@ frame_needed = 0, uses_anonymous_args = 0
 219              		@ link register save eliminated.
  86:lib/BTT/src/Statistics.c ****   return sqrt(self->variance);
 220              		.loc 1 86 3 view .LVU45
 221              		.loc 1 86 10 is_stmt 0 view .LVU46
 222 0000 90ED040B 		vldr.64	d0, [r0, #16]
 223 0004 FFF7FEBF 		b	sqrt
 224              	.LVL11:
 225              		.loc 1 86 10 view .LVU47
 226              		.cfi_endproc
 227              	.LFE326:
 229              		.section	.text.online_average_update,"ax",%progbits
 230              		.align	1
 231              		.global	online_average_update
 232              		.syntax unified
 233              		.thumb
 234              		.thumb_func
 236              	online_average_update:
 237              	.LVL12:
 238              	.LFB327:
  87:lib/BTT/src/Statistics.c **** }
  88:lib/BTT/src/Statistics.c **** 
  89:lib/BTT/src/Statistics.c **** /*--------------------------------------------------------------------*/
  90:lib/BTT/src/Statistics.c **** void online_average_update(OnlineAverage* self, double     x)
  91:lib/BTT/src/Statistics.c **** {
 239              		.loc 1 91 1 is_stmt 1 view -0
 240              		.cfi_startproc
 241              		@ args = 0, pretend = 0, frame = 0
 242              		@ frame_needed = 0, uses_anonymous_args = 0
 243              		@ link register save eliminated.
  92:lib/BTT/src/Statistics.c ****   ++self->n;
 244              		.loc 1 92 3 view .LVU49
 245              		.loc 1 92 9 is_stmt 0 view .LVU50
 246 0000 0268     		ldr	r2, [r0]
 247              		.loc 1 92 3 view .LVU51
 248 0002 531C     		adds	r3, r2, #1
  93:lib/BTT/src/Statistics.c ****   
  94:lib/BTT/src/Statistics.c ****   if (self->n == 1)
 249              		.loc 1 94 6 view .LVU52
 250 0004 012B     		cmp	r3, #1
ARM GAS  /var/folders/lw/_hmdf9396f92znj902yw3qj00000gn/T//ccGkIGkl.s 			page 7


  92:lib/BTT/src/Statistics.c ****   ++self->n;
 251              		.loc 1 92 3 view .LVU53
 252 0006 0360     		str	r3, [r0]
 253              		.loc 1 94 3 is_stmt 1 view .LVU54
 254              		.loc 1 94 6 is_stmt 0 view .LVU55
 255 0008 08D1     		bne	.L17
  95:lib/BTT/src/Statistics.c ****     {
  96:lib/BTT/src/Statistics.c ****       self->old_mean = self->mean = x;
 256              		.loc 1 96 7 is_stmt 1 view .LVU56
  97:lib/BTT/src/Statistics.c ****       self->old_s    = 0.0;
 257              		.loc 1 97 22 is_stmt 0 view .LVU57
 258 000a 0022     		movs	r2, #0
 259 000c 0023     		movs	r3, #0
  96:lib/BTT/src/Statistics.c ****       self->old_s    = 0.0;
 260              		.loc 1 96 35 view .LVU58
 261 000e 80ED020B 		vstr.64	d0, [r0, #8]
  96:lib/BTT/src/Statistics.c ****       self->old_s    = 0.0;
 262              		.loc 1 96 22 view .LVU59
 263 0012 80ED060B 		vstr.64	d0, [r0, #24]
 264              		.loc 1 97 7 is_stmt 1 view .LVU60
 265              		.loc 1 97 22 is_stmt 0 view .LVU61
 266 0016 C0E90A23 		strd	r2, [r0, #40]
 267 001a 7047     		bx	lr
 268              	.L17:
  98:lib/BTT/src/Statistics.c ****     }
  99:lib/BTT/src/Statistics.c ****   else
 100:lib/BTT/src/Statistics.c ****     {
 101:lib/BTT/src/Statistics.c ****       self->mean     = self->old_mean + (x - self->old_mean) / self->n;
 269              		.loc 1 101 7 is_stmt 1 view .LVU62
 270              		.loc 1 101 28 is_stmt 0 view .LVU63
 271 001c 90ED064B 		vldr.64	d4, [r0, #24]
 272              		.loc 1 101 62 view .LVU64
 273 0020 07EE903A 		vmov	s15, r3	@ int
 274              		.loc 1 101 44 view .LVU65
 275 0024 30EE445B 		vsub.f64	d5, d0, d4
 276              		.loc 1 101 62 view .LVU66
 277 0028 B8EE677B 		vcvt.f64.u32	d7, s15
 278 002c 85EE076B 		vdiv.f64	d6, d5, d7
 102:lib/BTT/src/Statistics.c ****       self->s        = self->old_s + ((x - self->old_mean) * (x - self->mean));
 279              		.loc 1 102 36 view .LVU67
 280 0030 90ED0A7B 		vldr.64	d7, [r0, #40]
 101:lib/BTT/src/Statistics.c ****       self->s        = self->old_s + ((x - self->old_mean) * (x - self->mean));
 281              		.loc 1 101 39 view .LVU68
 282 0034 36EE046B 		vadd.f64	d6, d6, d4
 283              		.loc 1 102 65 view .LVU69
 284 0038 30EE460B 		vsub.f64	d0, d0, d6
 285              	.LVL13:
 101:lib/BTT/src/Statistics.c ****       self->s        = self->old_s + ((x - self->old_mean) * (x - self->mean));
 286              		.loc 1 101 22 view .LVU70
 287 003c 80ED026B 		vstr.64	d6, [r0, #8]
 288              		.loc 1 102 7 is_stmt 1 view .LVU71
 289              		.loc 1 102 36 is_stmt 0 view .LVU72
 290 0040 A5EE007B 		vfma.f64	d7, d5, d0
 103:lib/BTT/src/Statistics.c ****       self->old_mean = self->mean; 
 291              		.loc 1 103 22 view .LVU73
 292 0044 80ED066B 		vstr.64	d6, [r0, #24]
 104:lib/BTT/src/Statistics.c ****       self->old_s    = self->s;
ARM GAS  /var/folders/lw/_hmdf9396f92znj902yw3qj00000gn/T//ccGkIGkl.s 			page 8


 105:lib/BTT/src/Statistics.c ****       self->variance = self->s / (self->n - 1);
 293              		.loc 1 105 32 view .LVU74
 294 0048 06EE902A 		vmov	s13, r2	@ int
 295 004c B8EE666B 		vcvt.f64.u32	d6, s13
 102:lib/BTT/src/Statistics.c ****       self->old_mean = self->mean; 
 296              		.loc 1 102 22 view .LVU75
 297 0050 80ED087B 		vstr.64	d7, [r0, #32]
 103:lib/BTT/src/Statistics.c ****       self->old_mean = self->mean; 
 298              		.loc 1 103 7 is_stmt 1 view .LVU76
 104:lib/BTT/src/Statistics.c ****       self->old_s    = self->s;
 299              		.loc 1 104 7 view .LVU77
 300              		.loc 1 105 32 is_stmt 0 view .LVU78
 301 0054 87EE065B 		vdiv.f64	d5, d7, d6
 104:lib/BTT/src/Statistics.c ****       self->old_s    = self->s;
 302              		.loc 1 104 22 view .LVU79
 303 0058 80ED0A7B 		vstr.64	d7, [r0, #40]
 304              		.loc 1 105 7 is_stmt 1 view .LVU80
 305              		.loc 1 105 22 is_stmt 0 view .LVU81
 306 005c 80ED045B 		vstr.64	d5, [r0, #16]
 106:lib/BTT/src/Statistics.c ****     }
 107:lib/BTT/src/Statistics.c **** }
 307              		.loc 1 107 1 view .LVU82
 308 0060 7047     		bx	lr
 309              		.cfi_endproc
 310              	.LFE327:
 312              		.section	.text.moving_average_init,"ax",%progbits
 313              		.align	1
 314              		.global	moving_average_init
 315              		.syntax unified
 316              		.thumb
 317              		.thumb_func
 319              	moving_average_init:
 320              	.LVL14:
 321              	.LFB329:
 108:lib/BTT/src/Statistics.c **** 
 109:lib/BTT/src/Statistics.c **** /*--------------------------------------------------------------------*/
 110:lib/BTT/src/Statistics.c **** /*-__--__---------_---------------_-------------------------------------
 111:lib/BTT/src/Statistics.c ****   |  \/  |_____ _(_)_ _  __ _    /_\__ _____ _ _ __ _ __ _ ___ 
 112:lib/BTT/src/Statistics.c ****   | |\/| / _ \ V / | ' \/ _` |  / _ \ V / -_) '_/ _` / _` / -_)
 113:lib/BTT/src/Statistics.c ****   |_|  |_\___/\_/|_|_||_\__, | /_/ \_\_/\___|_| \__,_\__, \___|
 114:lib/BTT/src/Statistics.c **** ------------------------|___/------------------------|___/--------------
 115:lib/BTT/src/Statistics.c ****   Calculate the moving or rolling mean and variance over the past N
 116:lib/BTT/src/Statistics.c ****   samples of a signal. This algorithm is online and updates one sample
 117:lib/BTT/src/Statistics.c ****   at a time.
 118:lib/BTT/src/Statistics.c **** ----------------------------------------------------------------------*/
 119:lib/BTT/src/Statistics.c **** struct opaque_moving_average_struct
 120:lib/BTT/src/Statistics.c **** {
 121:lib/BTT/src/Statistics.c ****   unsigned       N;  // the nominal window size
 122:lib/BTT/src/Statistics.c ****   double         mean;
 123:lib/BTT/src/Statistics.c ****   double         variance;
 124:lib/BTT/src/Statistics.c ****   double*        past_samples;
 125:lib/BTT/src/Statistics.c ****   unsigned       current_sample_index;
 126:lib/BTT/src/Statistics.c ****   double         s;
 127:lib/BTT/src/Statistics.c ****   OnlineAverage* online;  //used until there are at least self->N samples
 128:lib/BTT/src/Statistics.c **** };
 129:lib/BTT/src/Statistics.c **** 
 130:lib/BTT/src/Statistics.c **** /*--------------------------------------------------------------------*/
ARM GAS  /var/folders/lw/_hmdf9396f92znj902yw3qj00000gn/T//ccGkIGkl.s 			page 9


 131:lib/BTT/src/Statistics.c **** MovingAverage* moving_average_new(unsigned N)
 132:lib/BTT/src/Statistics.c **** {
 133:lib/BTT/src/Statistics.c ****   MovingAverage* self = calloc(1, sizeof(*self));
 134:lib/BTT/src/Statistics.c ****   if(self != NULL)
 135:lib/BTT/src/Statistics.c ****     {
 136:lib/BTT/src/Statistics.c ****       self->N = N;
 137:lib/BTT/src/Statistics.c ****       self->past_samples = calloc(self->N, sizeof(*self->past_samples));
 138:lib/BTT/src/Statistics.c ****       if(self->past_samples == NULL)
 139:lib/BTT/src/Statistics.c ****         return moving_average_destroy(self);
 140:lib/BTT/src/Statistics.c ****       
 141:lib/BTT/src/Statistics.c ****       self->online = online_average_new();
 142:lib/BTT/src/Statistics.c ****       if(self->online == NULL)
 143:lib/BTT/src/Statistics.c ****         return moving_average_destroy(self);
 144:lib/BTT/src/Statistics.c ****       
 145:lib/BTT/src/Statistics.c ****       moving_average_init(self);
 146:lib/BTT/src/Statistics.c ****     }
 147:lib/BTT/src/Statistics.c ****   return self;
 148:lib/BTT/src/Statistics.c **** }
 149:lib/BTT/src/Statistics.c **** 
 150:lib/BTT/src/Statistics.c **** /*--------------------------------------------------------------------*/
 151:lib/BTT/src/Statistics.c **** void moving_average_init(MovingAverage* self)
 152:lib/BTT/src/Statistics.c **** {
 322              		.loc 1 152 1 is_stmt 1 view -0
 323              		.cfi_startproc
 324              		@ args = 0, pretend = 0, frame = 0
 325              		@ frame_needed = 0, uses_anonymous_args = 0
 326              		@ link register save eliminated.
 153:lib/BTT/src/Statistics.c ****   self->mean                 = 0;
 327              		.loc 1 153 3 view .LVU84
 328              		.loc 1 153 30 is_stmt 0 view .LVU85
 329 0000 0022     		movs	r2, #0
 330 0002 0023     		movs	r3, #0
 154:lib/BTT/src/Statistics.c ****   self->variance             = 0;
 155:lib/BTT/src/Statistics.c ****   self->current_sample_index = 0;
 331              		.loc 1 155 30 view .LVU86
 332 0004 0021     		movs	r1, #0
 153:lib/BTT/src/Statistics.c ****   self->mean                 = 0;
 333              		.loc 1 153 30 view .LVU87
 334 0006 C0E90223 		strd	r2, [r0, #8]
 154:lib/BTT/src/Statistics.c ****   self->variance             = 0;
 335              		.loc 1 154 3 is_stmt 1 view .LVU88
 154:lib/BTT/src/Statistics.c ****   self->variance             = 0;
 336              		.loc 1 154 30 is_stmt 0 view .LVU89
 337 000a C0E90423 		strd	r2, [r0, #16]
 338              		.loc 1 155 3 is_stmt 1 view .LVU90
 339              		.loc 1 155 30 is_stmt 0 view .LVU91
 340 000e C161     		str	r1, [r0, #28]
 156:lib/BTT/src/Statistics.c ****   self->s                    = 0;
 341              		.loc 1 156 3 is_stmt 1 view .LVU92
 342              		.loc 1 156 30 is_stmt 0 view .LVU93
 343 0010 C0E90823 		strd	r2, [r0, #32]
 157:lib/BTT/src/Statistics.c ****   online_average_init(self->online);  
 344              		.loc 1 157 3 is_stmt 1 view .LVU94
 345 0014 806A     		ldr	r0, [r0, #40]
 346              	.LVL15:
 347              		.loc 1 157 3 is_stmt 0 view .LVU95
 348 0016 FFF7FEBF 		b	online_average_init
ARM GAS  /var/folders/lw/_hmdf9396f92znj902yw3qj00000gn/T//ccGkIGkl.s 			page 10


 349              	.LVL16:
 350              		.cfi_endproc
 351              	.LFE329:
 353              		.section	.text.moving_average_destroy,"ax",%progbits
 354              		.align	1
 355              		.global	moving_average_destroy
 356              		.syntax unified
 357              		.thumb
 358              		.thumb_func
 360              	moving_average_destroy:
 361              	.LVL17:
 362              	.LFB330:
 158:lib/BTT/src/Statistics.c **** }
 159:lib/BTT/src/Statistics.c **** 
 160:lib/BTT/src/Statistics.c **** /*--------------------------------------------------------------------*/
 161:lib/BTT/src/Statistics.c **** MovingAverage* moving_average_destroy(MovingAverage* self)
 162:lib/BTT/src/Statistics.c **** {
 363              		.loc 1 162 1 is_stmt 1 view -0
 364              		.cfi_startproc
 365              		@ args = 0, pretend = 0, frame = 0
 366              		@ frame_needed = 0, uses_anonymous_args = 0
 163:lib/BTT/src/Statistics.c ****   if(self != NULL)
 367              		.loc 1 163 3 view .LVU97
 162:lib/BTT/src/Statistics.c ****   if(self != NULL)
 368              		.loc 1 162 1 is_stmt 0 view .LVU98
 369 0000 10B5     		push	{r4, lr}
 370              		.cfi_def_cfa_offset 8
 371              		.cfi_offset 4, -8
 372              		.cfi_offset 14, -4
 373              		.loc 1 163 5 view .LVU99
 374 0002 0446     		mov	r4, r0
 375 0004 48B1     		cbz	r0, .L21
 164:lib/BTT/src/Statistics.c ****     {
 165:lib/BTT/src/Statistics.c ****       if(self->past_samples != NULL)
 376              		.loc 1 165 7 is_stmt 1 view .LVU100
 377              		.loc 1 165 14 is_stmt 0 view .LVU101
 378 0006 8069     		ldr	r0, [r0, #24]
 379              	.LVL18:
 380              		.loc 1 165 9 view .LVU102
 381 0008 08B1     		cbz	r0, .L22
 166:lib/BTT/src/Statistics.c ****         free(self->past_samples);
 382              		.loc 1 166 9 is_stmt 1 view .LVU103
 383 000a FFF7FEFF 		bl	free
 384              	.LVL19:
 385              	.L22:
 167:lib/BTT/src/Statistics.c ****         
 168:lib/BTT/src/Statistics.c ****       self->online = online_average_destroy(self->online);
 386              		.loc 1 168 7 view .LVU104
 387              		.loc 1 168 22 is_stmt 0 view .LVU105
 388 000e A06A     		ldr	r0, [r4, #40]
 389 0010 FFF7FEFF 		bl	online_average_destroy
 390              	.LVL20:
 169:lib/BTT/src/Statistics.c ****       
 170:lib/BTT/src/Statistics.c ****       free(self);
 391              		.loc 1 170 7 is_stmt 1 view .LVU106
 392 0014 2046     		mov	r0, r4
 393 0016 FFF7FEFF 		bl	free
ARM GAS  /var/folders/lw/_hmdf9396f92znj902yw3qj00000gn/T//ccGkIGkl.s 			page 11


 394              	.LVL21:
 395              	.L21:
 171:lib/BTT/src/Statistics.c ****     }
 172:lib/BTT/src/Statistics.c ****   return (MovingAverage*) NULL;
 396              		.loc 1 172 3 view .LVU107
 173:lib/BTT/src/Statistics.c **** }
 397              		.loc 1 173 1 is_stmt 0 view .LVU108
 398 001a 0020     		movs	r0, #0
 399 001c 10BD     		pop	{r4, pc}
 400              		.loc 1 173 1 view .LVU109
 401              		.cfi_endproc
 402              	.LFE330:
 404              		.section	.text.moving_average_new,"ax",%progbits
 405              		.align	1
 406              		.global	moving_average_new
 407              		.syntax unified
 408              		.thumb
 409              		.thumb_func
 411              	moving_average_new:
 412              	.LVL22:
 413              	.LFB328:
 132:lib/BTT/src/Statistics.c ****   MovingAverage* self = calloc(1, sizeof(*self));
 414              		.loc 1 132 1 is_stmt 1 view -0
 415              		.cfi_startproc
 416              		@ args = 0, pretend = 0, frame = 0
 417              		@ frame_needed = 0, uses_anonymous_args = 0
 133:lib/BTT/src/Statistics.c ****   if(self != NULL)
 418              		.loc 1 133 3 view .LVU111
 132:lib/BTT/src/Statistics.c ****   MovingAverage* self = calloc(1, sizeof(*self));
 419              		.loc 1 132 1 is_stmt 0 view .LVU112
 420 0000 38B5     		push	{r3, r4, r5, lr}
 421              		.cfi_def_cfa_offset 16
 422              		.cfi_offset 3, -16
 423              		.cfi_offset 4, -12
 424              		.cfi_offset 5, -8
 425              		.cfi_offset 14, -4
 133:lib/BTT/src/Statistics.c ****   if(self != NULL)
 426              		.loc 1 133 25 view .LVU113
 427 0002 3021     		movs	r1, #48
 132:lib/BTT/src/Statistics.c ****   MovingAverage* self = calloc(1, sizeof(*self));
 428              		.loc 1 132 1 view .LVU114
 429 0004 0546     		mov	r5, r0
 133:lib/BTT/src/Statistics.c ****   if(self != NULL)
 430              		.loc 1 133 25 view .LVU115
 431 0006 0120     		movs	r0, #1
 432              	.LVL23:
 133:lib/BTT/src/Statistics.c ****   if(self != NULL)
 433              		.loc 1 133 25 view .LVU116
 434 0008 FFF7FEFF 		bl	calloc
 435              	.LVL24:
 134:lib/BTT/src/Statistics.c ****     {
 436              		.loc 1 134 3 is_stmt 1 view .LVU117
 134:lib/BTT/src/Statistics.c ****     {
 437              		.loc 1 134 5 is_stmt 0 view .LVU118
 438 000c 0446     		mov	r4, r0
 439 000e 98B1     		cbz	r0, .L29
 136:lib/BTT/src/Statistics.c ****       self->past_samples = calloc(self->N, sizeof(*self->past_samples));
ARM GAS  /var/folders/lw/_hmdf9396f92znj902yw3qj00000gn/T//ccGkIGkl.s 			page 12


 440              		.loc 1 136 7 is_stmt 1 view .LVU119
 136:lib/BTT/src/Statistics.c ****       self->past_samples = calloc(self->N, sizeof(*self->past_samples));
 441              		.loc 1 136 15 is_stmt 0 view .LVU120
 442 0010 0560     		str	r5, [r0]
 137:lib/BTT/src/Statistics.c ****       if(self->past_samples == NULL)
 443              		.loc 1 137 7 is_stmt 1 view .LVU121
 137:lib/BTT/src/Statistics.c ****       if(self->past_samples == NULL)
 444              		.loc 1 137 28 is_stmt 0 view .LVU122
 445 0012 0821     		movs	r1, #8
 446 0014 2846     		mov	r0, r5
 447              	.LVL25:
 137:lib/BTT/src/Statistics.c ****       if(self->past_samples == NULL)
 448              		.loc 1 137 28 view .LVU123
 449 0016 FFF7FEFF 		bl	calloc
 450              	.LVL26:
 137:lib/BTT/src/Statistics.c ****       if(self->past_samples == NULL)
 451              		.loc 1 137 26 view .LVU124
 452 001a A061     		str	r0, [r4, #24]
 138:lib/BTT/src/Statistics.c ****         return moving_average_destroy(self);
 453              		.loc 1 138 7 is_stmt 1 view .LVU125
 138:lib/BTT/src/Statistics.c ****         return moving_average_destroy(self);
 454              		.loc 1 138 9 is_stmt 0 view .LVU126
 455 001c 20B9     		cbnz	r0, .L31
 456              	.L36:
 143:lib/BTT/src/Statistics.c ****       
 457              		.loc 1 143 9 is_stmt 1 view .LVU127
 143:lib/BTT/src/Statistics.c ****       
 458              		.loc 1 143 16 is_stmt 0 view .LVU128
 459 001e 2046     		mov	r0, r4
 148:lib/BTT/src/Statistics.c **** 
 460              		.loc 1 148 1 view .LVU129
 461 0020 BDE83840 		pop	{r3, r4, r5, lr}
 462              		.cfi_remember_state
 463              		.cfi_restore 14
 464              		.cfi_restore 5
 465              		.cfi_restore 4
 466              		.cfi_restore 3
 467              		.cfi_def_cfa_offset 0
 468              	.LVL27:
 143:lib/BTT/src/Statistics.c ****       
 469              		.loc 1 143 16 view .LVU130
 470 0024 FFF7FEBF 		b	moving_average_destroy
 471              	.LVL28:
 472              	.L31:
 473              		.cfi_restore_state
 141:lib/BTT/src/Statistics.c ****       if(self->online == NULL)
 474              		.loc 1 141 7 is_stmt 1 view .LVU131
 141:lib/BTT/src/Statistics.c ****       if(self->online == NULL)
 475              		.loc 1 141 22 is_stmt 0 view .LVU132
 476 0028 FFF7FEFF 		bl	online_average_new
 477              	.LVL29:
 141:lib/BTT/src/Statistics.c ****       if(self->online == NULL)
 478              		.loc 1 141 20 view .LVU133
 479 002c A062     		str	r0, [r4, #40]
 142:lib/BTT/src/Statistics.c ****         return moving_average_destroy(self);
 480              		.loc 1 142 7 is_stmt 1 view .LVU134
 142:lib/BTT/src/Statistics.c ****         return moving_average_destroy(self);
ARM GAS  /var/folders/lw/_hmdf9396f92znj902yw3qj00000gn/T//ccGkIGkl.s 			page 13


 481              		.loc 1 142 9 is_stmt 0 view .LVU135
 482 002e 0028     		cmp	r0, #0
 483 0030 F5D0     		beq	.L36
 145:lib/BTT/src/Statistics.c ****     }
 484              		.loc 1 145 7 is_stmt 1 view .LVU136
 485 0032 2046     		mov	r0, r4
 486 0034 FFF7FEFF 		bl	moving_average_init
 487              	.LVL30:
 488              	.L29:
 148:lib/BTT/src/Statistics.c **** 
 489              		.loc 1 148 1 is_stmt 0 view .LVU137
 490 0038 2046     		mov	r0, r4
 491 003a 38BD     		pop	{r3, r4, r5, pc}
 148:lib/BTT/src/Statistics.c **** 
 492              		.loc 1 148 1 view .LVU138
 493              		.cfi_endproc
 494              	.LFE328:
 496              		.section	.text.moving_average_N,"ax",%progbits
 497              		.align	1
 498              		.global	moving_average_N
 499              		.syntax unified
 500              		.thumb
 501              		.thumb_func
 503              	moving_average_N:
 504              	.LVL31:
 505              	.LFB331:
 174:lib/BTT/src/Statistics.c **** 
 175:lib/BTT/src/Statistics.c **** /*--------------------------------------------------------------------*/
 176:lib/BTT/src/Statistics.c **** int moving_average_N(MovingAverage* self)
 177:lib/BTT/src/Statistics.c **** {
 506              		.loc 1 177 1 is_stmt 1 view -0
 507              		.cfi_startproc
 508              		@ args = 0, pretend = 0, frame = 0
 509              		@ frame_needed = 0, uses_anonymous_args = 0
 510              		@ link register save eliminated.
 178:lib/BTT/src/Statistics.c ****   return self->N;
 511              		.loc 1 178 3 view .LVU140
 179:lib/BTT/src/Statistics.c **** }
 512              		.loc 1 179 1 is_stmt 0 view .LVU141
 513 0000 0068     		ldr	r0, [r0]
 514              	.LVL32:
 515              		.loc 1 179 1 view .LVU142
 516 0002 7047     		bx	lr
 517              		.cfi_endproc
 518              	.LFE331:
 520              		.section	.text.moving_average_n,"ax",%progbits
 521              		.align	1
 522              		.global	moving_average_n
 523              		.syntax unified
 524              		.thumb
 525              		.thumb_func
 527              	moving_average_n:
 528              	.LVL33:
 529              	.LFB332:
 180:lib/BTT/src/Statistics.c **** 
 181:lib/BTT/src/Statistics.c **** /*--------------------------------------------------------------------*/
 182:lib/BTT/src/Statistics.c **** int moving_average_n(MovingAverage* self)
ARM GAS  /var/folders/lw/_hmdf9396f92znj902yw3qj00000gn/T//ccGkIGkl.s 			page 14


 183:lib/BTT/src/Statistics.c **** {
 530              		.loc 1 183 1 is_stmt 1 view -0
 531              		.cfi_startproc
 532              		@ args = 0, pretend = 0, frame = 0
 533              		@ frame_needed = 0, uses_anonymous_args = 0
 534              		@ link register save eliminated.
 184:lib/BTT/src/Statistics.c ****   return online_average_n(self->online);
 535              		.loc 1 184 3 view .LVU144
 536              	.LBB22:
 537              	.LBI22:
  66:lib/BTT/src/Statistics.c **** {
 538              		.loc 1 66 5 view .LVU145
 539              	.LBB23:
  68:lib/BTT/src/Statistics.c **** }
 540              		.loc 1 68 3 view .LVU146
  68:lib/BTT/src/Statistics.c **** }
 541              		.loc 1 68 14 is_stmt 0 view .LVU147
 542 0000 836A     		ldr	r3, [r0, #40]
 543              	.LBE23:
 544              	.LBE22:
 185:lib/BTT/src/Statistics.c **** }
 545              		.loc 1 185 1 view .LVU148
 546 0002 1868     		ldr	r0, [r3]
 547              	.LVL34:
 548              		.loc 1 185 1 view .LVU149
 549 0004 7047     		bx	lr
 550              		.cfi_endproc
 551              	.LFE332:
 553              		.section	.text.moving_average_mean,"ax",%progbits
 554              		.align	1
 555              		.global	moving_average_mean
 556              		.syntax unified
 557              		.thumb
 558              		.thumb_func
 560              	moving_average_mean:
 561              	.LVL35:
 562              	.LFB333:
 186:lib/BTT/src/Statistics.c **** 
 187:lib/BTT/src/Statistics.c **** /*--------------------------------------------------------------------*/
 188:lib/BTT/src/Statistics.c **** double     moving_average_mean(MovingAverage* self)
 189:lib/BTT/src/Statistics.c **** {
 563              		.loc 1 189 1 is_stmt 1 view -0
 564              		.cfi_startproc
 565              		@ args = 0, pretend = 0, frame = 0
 566              		@ frame_needed = 0, uses_anonymous_args = 0
 567              		@ link register save eliminated.
 190:lib/BTT/src/Statistics.c ****   return self->mean;
 568              		.loc 1 190 3 view .LVU151
 191:lib/BTT/src/Statistics.c **** }
 569              		.loc 1 191 1 is_stmt 0 view .LVU152
 570 0000 90ED020B 		vldr.64	d0, [r0, #8]
 571 0004 7047     		bx	lr
 572              		.cfi_endproc
 573              	.LFE333:
 575              		.section	.text.moving_average_variance,"ax",%progbits
 576              		.align	1
 577              		.global	moving_average_variance
ARM GAS  /var/folders/lw/_hmdf9396f92znj902yw3qj00000gn/T//ccGkIGkl.s 			page 15


 578              		.syntax unified
 579              		.thumb
 580              		.thumb_func
 582              	moving_average_variance:
 583              	.LVL36:
 584              	.LFB334:
 192:lib/BTT/src/Statistics.c **** 
 193:lib/BTT/src/Statistics.c **** /*--------------------------------------------------------------------*/
 194:lib/BTT/src/Statistics.c **** double     moving_average_variance(MovingAverage* self)
 195:lib/BTT/src/Statistics.c **** {
 585              		.loc 1 195 1 is_stmt 1 view -0
 586              		.cfi_startproc
 587              		@ args = 0, pretend = 0, frame = 0
 588              		@ frame_needed = 0, uses_anonymous_args = 0
 589              		@ link register save eliminated.
 196:lib/BTT/src/Statistics.c ****   return self->variance;
 590              		.loc 1 196 3 view .LVU154
 197:lib/BTT/src/Statistics.c **** }
 591              		.loc 1 197 1 is_stmt 0 view .LVU155
 592 0000 90ED040B 		vldr.64	d0, [r0, #16]
 593 0004 7047     		bx	lr
 594              		.cfi_endproc
 595              	.LFE334:
 597              		.section	.text.moving_average_std_dev,"ax",%progbits
 598              		.align	1
 599              		.global	moving_average_std_dev
 600              		.syntax unified
 601              		.thumb
 602              		.thumb_func
 604              	moving_average_std_dev:
 605              	.LVL37:
 606              	.LFB335:
 198:lib/BTT/src/Statistics.c **** 
 199:lib/BTT/src/Statistics.c **** /*--------------------------------------------------------------------*/
 200:lib/BTT/src/Statistics.c **** double     moving_average_std_dev(MovingAverage* self)
 201:lib/BTT/src/Statistics.c **** {
 607              		.loc 1 201 1 is_stmt 1 view -0
 608              		.cfi_startproc
 609              		@ args = 0, pretend = 0, frame = 0
 610              		@ frame_needed = 0, uses_anonymous_args = 0
 611              		@ link register save eliminated.
 202:lib/BTT/src/Statistics.c ****   return sqrt(self->variance);
 612              		.loc 1 202 3 view .LVU157
 613              		.loc 1 202 10 is_stmt 0 view .LVU158
 614 0000 90ED040B 		vldr.64	d0, [r0, #16]
 615 0004 FFF7FEBF 		b	sqrt
 616              	.LVL38:
 617              		.loc 1 202 10 view .LVU159
 618              		.cfi_endproc
 619              	.LFE335:
 621              		.section	.text.moving_average_update,"ax",%progbits
 622              		.align	1
 623              		.global	moving_average_update
 624              		.syntax unified
 625              		.thumb
 626              		.thumb_func
 628              	moving_average_update:
ARM GAS  /var/folders/lw/_hmdf9396f92znj902yw3qj00000gn/T//ccGkIGkl.s 			page 16


 629              	.LVL39:
 630              	.LFB336:
 203:lib/BTT/src/Statistics.c **** }
 204:lib/BTT/src/Statistics.c **** /*--------------------------------------------------------------------*/
 205:lib/BTT/src/Statistics.c **** void moving_average_update(MovingAverage* self, double     x)
 206:lib/BTT/src/Statistics.c **** {
 631              		.loc 1 206 1 is_stmt 1 view -0
 632              		.cfi_startproc
 633              		@ args = 0, pretend = 0, frame = 0
 634              		@ frame_needed = 0, uses_anonymous_args = 0
 207:lib/BTT/src/Statistics.c ****   double     new_mean;
 635              		.loc 1 207 3 view .LVU161
 208:lib/BTT/src/Statistics.c ****   double     oldest_sample = self->past_samples[self->current_sample_index];
 636              		.loc 1 208 3 view .LVU162
 206:lib/BTT/src/Statistics.c ****   double     new_mean;
 637              		.loc 1 206 1 is_stmt 0 view .LVU163
 638 0000 08B5     		push	{r3, lr}
 639              		.cfi_def_cfa_offset 8
 640              		.cfi_offset 3, -8
 641              		.cfi_offset 14, -4
 642              		.loc 1 208 48 view .LVU164
 643 0002 D0E90623 		ldrd	r2, r3, [r0, #24]
 206:lib/BTT/src/Statistics.c ****   double     new_mean;
 644              		.loc 1 206 1 view .LVU165
 645 0006 0146     		mov	r1, r0
 646              		.loc 1 208 48 view .LVU166
 647 0008 02EBC302 		add	r2, r2, r3, lsl #3
 209:lib/BTT/src/Statistics.c ****   
 210:lib/BTT/src/Statistics.c ****   self->past_samples[self->current_sample_index] = x;
 211:lib/BTT/src/Statistics.c ****   ++self->current_sample_index;
 648              		.loc 1 211 3 view .LVU167
 649 000c 0133     		adds	r3, r3, #1
 208:lib/BTT/src/Statistics.c ****   
 650              		.loc 1 208 14 view .LVU168
 651 000e 92ED007B 		vldr.64	d7, [r2]
 652              	.LVL40:
 210:lib/BTT/src/Statistics.c ****   ++self->current_sample_index;
 653              		.loc 1 210 3 is_stmt 1 view .LVU169
 210:lib/BTT/src/Statistics.c ****   ++self->current_sample_index;
 654              		.loc 1 210 50 is_stmt 0 view .LVU170
 655 0012 82ED000B 		vstr.64	d0, [r2]
 656              		.loc 1 211 3 is_stmt 1 view .LVU171
 212:lib/BTT/src/Statistics.c ****   self->current_sample_index %= self->N;
 657              		.loc 1 212 3 view .LVU172
 658              		.loc 1 212 37 is_stmt 0 view .LVU173
 659 0016 0268     		ldr	r2, [r0]
 660              		.loc 1 212 30 view .LVU174
 661 0018 B3FBF2F0 		udiv	r0, r3, r2
 662              	.LVL41:
 663              		.loc 1 212 30 view .LVU175
 664 001c 02FB1033 		mls	r3, r2, r0, r3
 213:lib/BTT/src/Statistics.c **** 
 214:lib/BTT/src/Statistics.c ****   if(online_average_n(self->online) < self->N)
 665              		.loc 1 214 6 view .LVU176
 666 0020 886A     		ldr	r0, [r1, #40]
 212:lib/BTT/src/Statistics.c ****   self->current_sample_index %= self->N;
 667              		.loc 1 212 30 view .LVU177
ARM GAS  /var/folders/lw/_hmdf9396f92znj902yw3qj00000gn/T//ccGkIGkl.s 			page 17


 668 0022 CB61     		str	r3, [r1, #28]
 669              		.loc 1 214 3 is_stmt 1 view .LVU178
 670              	.LVL42:
 671              	.LBB24:
 672              	.LBI24:
  66:lib/BTT/src/Statistics.c **** {
 673              		.loc 1 66 5 view .LVU179
 674              	.LBB25:
  68:lib/BTT/src/Statistics.c **** }
 675              		.loc 1 68 3 view .LVU180
  68:lib/BTT/src/Statistics.c **** }
 676              		.loc 1 68 3 is_stmt 0 view .LVU181
 677              	.LBE25:
 678              	.LBE24:
 679              		.loc 1 214 5 view .LVU182
 680 0024 0368     		ldr	r3, [r0]
 681 0026 9A42     		cmp	r2, r3
 682 0028 13D9     		bls	.L43
 215:lib/BTT/src/Statistics.c ****     {
 216:lib/BTT/src/Statistics.c ****       online_average_update(self->online, x);
 683              		.loc 1 216 7 is_stmt 1 view .LVU183
 684 002a FFF7FEFF 		bl	online_average_update
 685              	.LVL43:
 217:lib/BTT/src/Statistics.c ****       self->variance = online_average_variance(self->online);
 686              		.loc 1 217 7 view .LVU184
 687              		.loc 1 217 24 is_stmt 0 view .LVU185
 688 002e 8B6A     		ldr	r3, [r1, #40]
 689              	.LVL44:
 690              	.LBB26:
 691              	.LBI26:
  78:lib/BTT/src/Statistics.c **** {
 692              		.loc 1 78 12 is_stmt 1 view .LVU186
 693              	.LBB27:
  80:lib/BTT/src/Statistics.c **** }
 694              		.loc 1 80 3 view .LVU187
 695              	.LBE27:
 696              	.LBE26:
 218:lib/BTT/src/Statistics.c ****       self->mean     = online_average_mean(self->online);
 219:lib/BTT/src/Statistics.c ****       self->s        = self->variance * self->N;
 697              		.loc 1 219 39 is_stmt 0 view .LVU188
 698 0030 D1ED007A 		vldr.32	s15, [r1]	@ int
 699              	.LBB29:
 700              	.LBB28:
  80:lib/BTT/src/Statistics.c **** }
 701              		.loc 1 80 14 view .LVU189
 702 0034 93ED046B 		vldr.64	d6, [r3, #16]
 703              	.LVL45:
  80:lib/BTT/src/Statistics.c **** }
 704              		.loc 1 80 14 view .LVU190
 705              	.LBE28:
 706              	.LBE29:
 707              		.loc 1 219 39 view .LVU191
 708 0038 B8EE677B 		vcvt.f64.u32	d7, s15
 218:lib/BTT/src/Statistics.c ****       self->mean     = online_average_mean(self->online);
 709              		.loc 1 218 22 view .LVU192
 710 003c D3E90223 		ldrd	r2, [r3, #8]
 711              		.loc 1 219 39 view .LVU193
ARM GAS  /var/folders/lw/_hmdf9396f92znj902yw3qj00000gn/T//ccGkIGkl.s 			page 18


 712 0040 27EE067B 		vmul.f64	d7, d7, d6
 217:lib/BTT/src/Statistics.c ****       self->mean     = online_average_mean(self->online);
 713              		.loc 1 217 22 view .LVU194
 714 0044 81ED046B 		vstr.64	d6, [r1, #16]
 218:lib/BTT/src/Statistics.c ****       self->mean     = online_average_mean(self->online);
 715              		.loc 1 218 7 is_stmt 1 view .LVU195
 716              	.LBB30:
 717              	.LBI30:
  72:lib/BTT/src/Statistics.c **** {
 718              		.loc 1 72 12 view .LVU196
 719              	.LBB31:
  74:lib/BTT/src/Statistics.c **** }
 720              		.loc 1 74 3 view .LVU197
 721              	.LBE31:
 722              	.LBE30:
 218:lib/BTT/src/Statistics.c ****       self->s        = self->variance * self->N;
 723              		.loc 1 218 22 is_stmt 0 view .LVU198
 724 0048 C1E90223 		strd	r2, [r1, #8]
 725              		.loc 1 219 7 is_stmt 1 view .LVU199
 726              		.loc 1 219 22 is_stmt 0 view .LVU200
 727 004c 81ED087B 		vstr.64	d7, [r1, #32]
 728              	.L42:
 220:lib/BTT/src/Statistics.c ****     }
 221:lib/BTT/src/Statistics.c ****   else
 222:lib/BTT/src/Statistics.c ****     {
 223:lib/BTT/src/Statistics.c ****       new_mean       = self->mean + (x - oldest_sample) / self->N;
 224:lib/BTT/src/Statistics.c ****       self->s       += (x + oldest_sample - self->mean - new_mean) * (x - oldest_sample);
 225:lib/BTT/src/Statistics.c ****       self->variance = self->s / self->N;
 226:lib/BTT/src/Statistics.c ****       self->mean     = new_mean;
 227:lib/BTT/src/Statistics.c ****     }
 228:lib/BTT/src/Statistics.c **** };
 729              		.loc 1 228 1 view .LVU201
 730 0050 08BD     		pop	{r3, pc}
 731              	.LVL46:
 732              	.L43:
 223:lib/BTT/src/Statistics.c ****       self->s       += (x + oldest_sample - self->mean - new_mean) * (x - oldest_sample);
 733              		.loc 1 223 7 is_stmt 1 view .LVU202
 223:lib/BTT/src/Statistics.c ****       self->s       += (x + oldest_sample - self->mean - new_mean) * (x - oldest_sample);
 734              		.loc 1 223 57 is_stmt 0 view .LVU203
 735 0052 06EE902A 		vmov	s13, r2	@ int
 223:lib/BTT/src/Statistics.c ****       self->s       += (x + oldest_sample - self->mean - new_mean) * (x - oldest_sample);
 736              		.loc 1 223 40 view .LVU204
 737 0056 30EE473B 		vsub.f64	d3, d0, d7
 224:lib/BTT/src/Statistics.c ****       self->variance = self->s / self->N;
 738              		.loc 1 224 27 view .LVU205
 739 005a 37EE007B 		vadd.f64	d7, d7, d0
 740              	.LVL47:
 223:lib/BTT/src/Statistics.c ****       self->s       += (x + oldest_sample - self->mean - new_mean) * (x - oldest_sample);
 741              		.loc 1 223 57 view .LVU206
 742 005e B8EE666B 		vcvt.f64.u32	d6, s13
 223:lib/BTT/src/Statistics.c ****       self->s       += (x + oldest_sample - self->mean - new_mean) * (x - oldest_sample);
 743              		.loc 1 223 28 view .LVU207
 744 0062 91ED022B 		vldr.64	d2, [r1, #8]
 223:lib/BTT/src/Statistics.c ****       self->s       += (x + oldest_sample - self->mean - new_mean) * (x - oldest_sample);
 745              		.loc 1 223 57 view .LVU208
 746 0066 83EE064B 		vdiv.f64	d4, d3, d6
 224:lib/BTT/src/Statistics.c ****       self->variance = self->s / self->N;
ARM GAS  /var/folders/lw/_hmdf9396f92znj902yw3qj00000gn/T//ccGkIGkl.s 			page 19


 747              		.loc 1 224 43 view .LVU209
 748 006a 37EE427B 		vsub.f64	d7, d7, d2
 224:lib/BTT/src/Statistics.c ****       self->variance = self->s / self->N;
 749              		.loc 1 224 21 view .LVU210
 750 006e 91ED085B 		vldr.64	d5, [r1, #32]
 223:lib/BTT/src/Statistics.c ****       self->s       += (x + oldest_sample - self->mean - new_mean) * (x - oldest_sample);
 751              		.loc 1 223 22 view .LVU211
 752 0072 34EE024B 		vadd.f64	d4, d4, d2
 753              	.LVL48:
 224:lib/BTT/src/Statistics.c ****       self->variance = self->s / self->N;
 754              		.loc 1 224 7 is_stmt 1 view .LVU212
 224:lib/BTT/src/Statistics.c ****       self->variance = self->s / self->N;
 755              		.loc 1 224 56 is_stmt 0 view .LVU213
 756 0076 37EE447B 		vsub.f64	d7, d7, d4
 226:lib/BTT/src/Statistics.c ****     }
 757              		.loc 1 226 22 view .LVU214
 758 007a 81ED024B 		vstr.64	d4, [r1, #8]
 224:lib/BTT/src/Statistics.c ****       self->variance = self->s / self->N;
 759              		.loc 1 224 21 view .LVU215
 760 007e A3EE075B 		vfma.f64	d5, d3, d7
 225:lib/BTT/src/Statistics.c ****       self->mean     = new_mean;
 761              		.loc 1 225 32 view .LVU216
 762 0082 85EE067B 		vdiv.f64	d7, d5, d6
 224:lib/BTT/src/Statistics.c ****       self->variance = self->s / self->N;
 763              		.loc 1 224 21 view .LVU217
 764 0086 81ED085B 		vstr.64	d5, [r1, #32]
 225:lib/BTT/src/Statistics.c ****       self->mean     = new_mean;
 765              		.loc 1 225 7 is_stmt 1 view .LVU218
 225:lib/BTT/src/Statistics.c ****       self->mean     = new_mean;
 766              		.loc 1 225 22 is_stmt 0 view .LVU219
 767 008a 81ED047B 		vstr.64	d7, [r1, #16]
 226:lib/BTT/src/Statistics.c ****     }
 768              		.loc 1 226 7 is_stmt 1 view .LVU220
 769              		.loc 1 228 1 is_stmt 0 view .LVU221
 770 008e DFE7     		b	.L42
 771              		.cfi_endproc
 772              	.LFE336:
 774              		.section	.text.online_regression_init,"ax",%progbits
 775              		.align	1
 776              		.global	online_regression_init
 777              		.syntax unified
 778              		.thumb
 779              		.thumb_func
 781              	online_regression_init:
 782              	.LVL49:
 783              	.LFB338:
 229:lib/BTT/src/Statistics.c **** 
 230:lib/BTT/src/Statistics.c **** /*--------------------------------------------------------------------*/
 231:lib/BTT/src/Statistics.c **** /*--___-------_-_------------___------------------------_---------------
 232:lib/BTT/src/Statistics.c ****    / _ \ _ _ | (_)_ _  ___  | _ \___ __ _ _ _ ___ _____(_)___ _ _  
 233:lib/BTT/src/Statistics.c ****   | (_) | ' \| | | ' \/ -_) |   / -_) _` | '_/ -_|_-<_-< / _ \ ' \ 
 234:lib/BTT/src/Statistics.c ****    \___/|_||_|_|_|_||_\___| |_|_\___\__, |_| \___/__/__/_\___/_||_|
 235:lib/BTT/src/Statistics.c **** ------------------------------------|___/-------------------------------
 236:lib/BTT/src/Statistics.c ****   Calculate the means, variances, covariance, slope, y-intercept and 
 237:lib/BTT/src/Statistics.c ****   correlation coeficient of two signals. This is an online algorithm
 238:lib/BTT/src/Statistics.c ****   that operates one sample at a time.
 239:lib/BTT/src/Statistics.c **** ----------------------------------------------------------------------*/
ARM GAS  /var/folders/lw/_hmdf9396f92znj902yw3qj00000gn/T//ccGkIGkl.s 			page 20


 240:lib/BTT/src/Statistics.c **** struct opaque_online_regression_struct
 241:lib/BTT/src/Statistics.c **** {
 242:lib/BTT/src/Statistics.c ****   unsigned     n         ;
 243:lib/BTT/src/Statistics.c ****   double       a_mean    ;
 244:lib/BTT/src/Statistics.c ****   double       b_mean    ;
 245:lib/BTT/src/Statistics.c ****   double       a_variance;
 246:lib/BTT/src/Statistics.c ****   double       b_variance;
 247:lib/BTT/src/Statistics.c ****   double       covariance;
 248:lib/BTT/src/Statistics.c ****   
 249:lib/BTT/src/Statistics.c ****   //slope, y-intercept, correlation
 250:lib/BTT/src/Statistics.c ****   double       m         ;
 251:lib/BTT/src/Statistics.c ****   double       b         ;
 252:lib/BTT/src/Statistics.c ****   double       r_2       ;
 253:lib/BTT/src/Statistics.c **** };
 254:lib/BTT/src/Statistics.c **** 
 255:lib/BTT/src/Statistics.c **** /*--------------------------------------------------------------------*/
 256:lib/BTT/src/Statistics.c **** OnlineRegression* online_regression_new()
 257:lib/BTT/src/Statistics.c **** {
 258:lib/BTT/src/Statistics.c ****   OnlineRegression* self = calloc(1, sizeof(*self));
 259:lib/BTT/src/Statistics.c ****   if(self != NULL)
 260:lib/BTT/src/Statistics.c ****     {
 261:lib/BTT/src/Statistics.c ****       online_regression_init(self);
 262:lib/BTT/src/Statistics.c ****     }
 263:lib/BTT/src/Statistics.c ****   return self;
 264:lib/BTT/src/Statistics.c **** }
 265:lib/BTT/src/Statistics.c **** 
 266:lib/BTT/src/Statistics.c **** /*--------------------------------------------------------------------*/
 267:lib/BTT/src/Statistics.c **** void online_regression_init(OnlineRegression* self)
 268:lib/BTT/src/Statistics.c **** {
 784              		.loc 1 268 1 is_stmt 1 view -0
 785              		.cfi_startproc
 786              		@ args = 0, pretend = 0, frame = 0
 787              		@ frame_needed = 0, uses_anonymous_args = 0
 269:lib/BTT/src/Statistics.c ****   self->n          = 0;
 788              		.loc 1 269 3 view .LVU223
 789              		.loc 1 269 20 is_stmt 0 view .LVU224
 790 0000 0023     		movs	r3, #0
 270:lib/BTT/src/Statistics.c ****   self->a_mean     = 0;
 791              		.loc 1 270 20 view .LVU225
 792 0002 0022     		movs	r2, #0
 268:lib/BTT/src/Statistics.c ****   self->n          = 0;
 793              		.loc 1 268 1 view .LVU226
 794 0004 30B5     		push	{r4, r5, lr}
 795              		.cfi_def_cfa_offset 12
 796              		.cfi_offset 4, -12
 797              		.cfi_offset 5, -8
 798              		.cfi_offset 14, -4
 269:lib/BTT/src/Statistics.c ****   self->n          = 0;
 799              		.loc 1 269 20 view .LVU227
 800 0006 0360     		str	r3, [r0]
 801              		.loc 1 270 3 is_stmt 1 view .LVU228
 271:lib/BTT/src/Statistics.c ****   self->b_mean     = 0;
 272:lib/BTT/src/Statistics.c ****   self->a_variance = 0;
 273:lib/BTT/src/Statistics.c ****   self->b_variance = 0;
 274:lib/BTT/src/Statistics.c ****   self->covariance = 0;
 275:lib/BTT/src/Statistics.c ****   self->m          = 1;
 802              		.loc 1 275 20 is_stmt 0 view .LVU229
ARM GAS  /var/folders/lw/_hmdf9396f92znj902yw3qj00000gn/T//ccGkIGkl.s 			page 21


 803 0008 0024     		movs	r4, #0
 270:lib/BTT/src/Statistics.c ****   self->b_mean     = 0;
 804              		.loc 1 270 20 view .LVU230
 805 000a 0023     		movs	r3, #0
 806              		.loc 1 275 20 view .LVU231
 807 000c 084D     		ldr	r5, .L46
 270:lib/BTT/src/Statistics.c ****   self->b_mean     = 0;
 808              		.loc 1 270 20 view .LVU232
 809 000e C0E90223 		strd	r2, [r0, #8]
 271:lib/BTT/src/Statistics.c ****   self->b_mean     = 0;
 810              		.loc 1 271 3 is_stmt 1 view .LVU233
 271:lib/BTT/src/Statistics.c ****   self->b_mean     = 0;
 811              		.loc 1 271 20 is_stmt 0 view .LVU234
 812 0012 C0E90423 		strd	r2, [r0, #16]
 272:lib/BTT/src/Statistics.c ****   self->b_variance = 0;
 813              		.loc 1 272 3 is_stmt 1 view .LVU235
 272:lib/BTT/src/Statistics.c ****   self->b_variance = 0;
 814              		.loc 1 272 20 is_stmt 0 view .LVU236
 815 0016 C0E90623 		strd	r2, [r0, #24]
 273:lib/BTT/src/Statistics.c ****   self->covariance = 0;
 816              		.loc 1 273 3 is_stmt 1 view .LVU237
 273:lib/BTT/src/Statistics.c ****   self->covariance = 0;
 817              		.loc 1 273 20 is_stmt 0 view .LVU238
 818 001a C0E90823 		strd	r2, [r0, #32]
 274:lib/BTT/src/Statistics.c ****   self->m          = 1;
 819              		.loc 1 274 3 is_stmt 1 view .LVU239
 274:lib/BTT/src/Statistics.c ****   self->m          = 1;
 820              		.loc 1 274 20 is_stmt 0 view .LVU240
 821 001e C0E90A23 		strd	r2, [r0, #40]
 822              		.loc 1 275 3 is_stmt 1 view .LVU241
 823              		.loc 1 275 20 is_stmt 0 view .LVU242
 824 0022 C0E90C45 		strd	r4, [r0, #48]
 276:lib/BTT/src/Statistics.c ****   self->b          = 0;
 825              		.loc 1 276 3 is_stmt 1 view .LVU243
 826              		.loc 1 276 20 is_stmt 0 view .LVU244
 827 0026 C0E90E23 		strd	r2, [r0, #56]
 277:lib/BTT/src/Statistics.c ****   self->r_2        = 0;
 828              		.loc 1 277 3 is_stmt 1 view .LVU245
 829              		.loc 1 277 20 is_stmt 0 view .LVU246
 830 002a C0E91023 		strd	r2, [r0, #64]
 278:lib/BTT/src/Statistics.c **** }
 831              		.loc 1 278 1 view .LVU247
 832 002e 30BD     		pop	{r4, r5, pc}
 833              	.L47:
 834              		.align	2
 835              	.L46:
 836 0030 0000F03F 		.word	1072693248
 837              		.cfi_endproc
 838              	.LFE338:
 840              		.section	.text.online_regression_new,"ax",%progbits
 841              		.align	1
 842              		.global	online_regression_new
 843              		.syntax unified
 844              		.thumb
 845              		.thumb_func
 847              	online_regression_new:
 848              	.LFB337:
ARM GAS  /var/folders/lw/_hmdf9396f92znj902yw3qj00000gn/T//ccGkIGkl.s 			page 22


 257:lib/BTT/src/Statistics.c ****   OnlineRegression* self = calloc(1, sizeof(*self));
 849              		.loc 1 257 1 is_stmt 1 view -0
 850              		.cfi_startproc
 851              		@ args = 0, pretend = 0, frame = 0
 852              		@ frame_needed = 0, uses_anonymous_args = 0
 258:lib/BTT/src/Statistics.c ****   if(self != NULL)
 853              		.loc 1 258 3 view .LVU249
 258:lib/BTT/src/Statistics.c ****   if(self != NULL)
 854              		.loc 1 258 28 is_stmt 0 view .LVU250
 855 0000 4821     		movs	r1, #72
 856 0002 0120     		movs	r0, #1
 257:lib/BTT/src/Statistics.c ****   OnlineRegression* self = calloc(1, sizeof(*self));
 857              		.loc 1 257 1 view .LVU251
 858 0004 08B5     		push	{r3, lr}
 859              		.cfi_def_cfa_offset 8
 860              		.cfi_offset 3, -8
 861              		.cfi_offset 14, -4
 258:lib/BTT/src/Statistics.c ****   if(self != NULL)
 862              		.loc 1 258 28 view .LVU252
 863 0006 FFF7FEFF 		bl	calloc
 864              	.LVL50:
 259:lib/BTT/src/Statistics.c ****     {
 865              		.loc 1 259 3 is_stmt 1 view .LVU253
 259:lib/BTT/src/Statistics.c ****     {
 866              		.loc 1 259 5 is_stmt 0 view .LVU254
 867 000a 0146     		mov	r1, r0
 868 000c 08B1     		cbz	r0, .L48
 261:lib/BTT/src/Statistics.c ****     }
 869              		.loc 1 261 7 is_stmt 1 view .LVU255
 870 000e FFF7FEFF 		bl	online_regression_init
 871              	.LVL51:
 263:lib/BTT/src/Statistics.c **** }
 872              		.loc 1 263 3 view .LVU256
 873              	.L48:
 264:lib/BTT/src/Statistics.c **** 
 874              		.loc 1 264 1 is_stmt 0 view .LVU257
 875 0012 0846     		mov	r0, r1
 876              	.LVL52:
 264:lib/BTT/src/Statistics.c **** 
 877              		.loc 1 264 1 view .LVU258
 878 0014 08BD     		pop	{r3, pc}
 879              		.cfi_endproc
 880              	.LFE337:
 882              		.section	.text.online_regression_destroy,"ax",%progbits
 883              		.align	1
 884              		.global	online_regression_destroy
 885              		.syntax unified
 886              		.thumb
 887              		.thumb_func
 889              	online_regression_destroy:
 890              	.LFB365:
 891              		.cfi_startproc
 892              		@ args = 0, pretend = 0, frame = 0
 893              		@ frame_needed = 0, uses_anonymous_args = 0
 894              		@ link register save eliminated.
 895 0000 FFF7FEBF 		b	online_average_destroy
 896              		.cfi_endproc
ARM GAS  /var/folders/lw/_hmdf9396f92znj902yw3qj00000gn/T//ccGkIGkl.s 			page 23


 897              	.LFE365:
 899              		.section	.text.online_regression_n,"ax",%progbits
 900              		.align	1
 901              		.global	online_regression_n
 902              		.syntax unified
 903              		.thumb
 904              		.thumb_func
 906              	online_regression_n:
 907              	.LVL53:
 908              	.LFB340:
 279:lib/BTT/src/Statistics.c **** 
 280:lib/BTT/src/Statistics.c **** /*--------------------------------------------------------------------*/
 281:lib/BTT/src/Statistics.c **** OnlineRegression* online_regression_destroy(OnlineRegression* self)
 282:lib/BTT/src/Statistics.c **** {
 283:lib/BTT/src/Statistics.c ****   if(self != NULL)
 284:lib/BTT/src/Statistics.c ****     {
 285:lib/BTT/src/Statistics.c ****       free(self);
 286:lib/BTT/src/Statistics.c ****     }
 287:lib/BTT/src/Statistics.c ****   return (OnlineRegression*) NULL;
 288:lib/BTT/src/Statistics.c **** }
 289:lib/BTT/src/Statistics.c **** 
 290:lib/BTT/src/Statistics.c **** /*--------------------------------------------------------------------*/
 291:lib/BTT/src/Statistics.c **** int online_regression_n(OnlineRegression* self)
 292:lib/BTT/src/Statistics.c **** {
 909              		.loc 1 292 1 is_stmt 1 view -0
 910              		.cfi_startproc
 911              		@ args = 0, pretend = 0, frame = 0
 912              		@ frame_needed = 0, uses_anonymous_args = 0
 913              		@ link register save eliminated.
 293:lib/BTT/src/Statistics.c ****   return self->n;
 914              		.loc 1 293 3 view .LVU260
 294:lib/BTT/src/Statistics.c **** }
 915              		.loc 1 294 1 is_stmt 0 view .LVU261
 916 0000 0068     		ldr	r0, [r0]
 917              	.LVL54:
 918              		.loc 1 294 1 view .LVU262
 919 0002 7047     		bx	lr
 920              		.cfi_endproc
 921              	.LFE340:
 923              		.section	.text.online_regression_covariance,"ax",%progbits
 924              		.align	1
 925              		.global	online_regression_covariance
 926              		.syntax unified
 927              		.thumb
 928              		.thumb_func
 930              	online_regression_covariance:
 931              	.LVL55:
 932              	.LFB341:
 295:lib/BTT/src/Statistics.c **** 
 296:lib/BTT/src/Statistics.c **** /*--------------------------------------------------------------------*/
 297:lib/BTT/src/Statistics.c **** double     online_regression_covariance(OnlineRegression* self)
 298:lib/BTT/src/Statistics.c **** {
 933              		.loc 1 298 1 is_stmt 1 view -0
 934              		.cfi_startproc
 935              		@ args = 0, pretend = 0, frame = 0
 936              		@ frame_needed = 0, uses_anonymous_args = 0
 937              		@ link register save eliminated.
ARM GAS  /var/folders/lw/_hmdf9396f92znj902yw3qj00000gn/T//ccGkIGkl.s 			page 24


 299:lib/BTT/src/Statistics.c ****   return self->covariance;
 938              		.loc 1 299 3 view .LVU264
 300:lib/BTT/src/Statistics.c **** }
 939              		.loc 1 300 1 is_stmt 0 view .LVU265
 940 0000 90ED0A0B 		vldr.64	d0, [r0, #40]
 941 0004 7047     		bx	lr
 942              		.cfi_endproc
 943              	.LFE341:
 945              		.section	.text.online_regression_slope,"ax",%progbits
 946              		.align	1
 947              		.global	online_regression_slope
 948              		.syntax unified
 949              		.thumb
 950              		.thumb_func
 952              	online_regression_slope:
 953              	.LVL56:
 954              	.LFB342:
 301:lib/BTT/src/Statistics.c **** 
 302:lib/BTT/src/Statistics.c **** /*--------------------------------------------------------------------*/
 303:lib/BTT/src/Statistics.c **** double     online_regression_slope(OnlineRegression* self)
 304:lib/BTT/src/Statistics.c **** {
 955              		.loc 1 304 1 is_stmt 1 view -0
 956              		.cfi_startproc
 957              		@ args = 0, pretend = 0, frame = 0
 958              		@ frame_needed = 0, uses_anonymous_args = 0
 959              		@ link register save eliminated.
 305:lib/BTT/src/Statistics.c ****   return self->m;
 960              		.loc 1 305 3 view .LVU267
 306:lib/BTT/src/Statistics.c **** }
 961              		.loc 1 306 1 is_stmt 0 view .LVU268
 962 0000 90ED0C0B 		vldr.64	d0, [r0, #48]
 963 0004 7047     		bx	lr
 964              		.cfi_endproc
 965              	.LFE342:
 967              		.section	.text.online_regression_y_intercept,"ax",%progbits
 968              		.align	1
 969              		.global	online_regression_y_intercept
 970              		.syntax unified
 971              		.thumb
 972              		.thumb_func
 974              	online_regression_y_intercept:
 975              	.LVL57:
 976              	.LFB343:
 307:lib/BTT/src/Statistics.c **** 
 308:lib/BTT/src/Statistics.c **** /*--------------------------------------------------------------------*/
 309:lib/BTT/src/Statistics.c **** double     online_regression_y_intercept(OnlineRegression* self)
 310:lib/BTT/src/Statistics.c **** {
 977              		.loc 1 310 1 is_stmt 1 view -0
 978              		.cfi_startproc
 979              		@ args = 0, pretend = 0, frame = 0
 980              		@ frame_needed = 0, uses_anonymous_args = 0
 981              		@ link register save eliminated.
 311:lib/BTT/src/Statistics.c ****   return self->b;
 982              		.loc 1 311 3 view .LVU270
 312:lib/BTT/src/Statistics.c **** }
 983              		.loc 1 312 1 is_stmt 0 view .LVU271
 984 0000 90ED0E0B 		vldr.64	d0, [r0, #56]
ARM GAS  /var/folders/lw/_hmdf9396f92znj902yw3qj00000gn/T//ccGkIGkl.s 			page 25


 985 0004 7047     		bx	lr
 986              		.cfi_endproc
 987              	.LFE343:
 989              		.section	.text.online_regression_r_squared,"ax",%progbits
 990              		.align	1
 991              		.global	online_regression_r_squared
 992              		.syntax unified
 993              		.thumb
 994              		.thumb_func
 996              	online_regression_r_squared:
 997              	.LVL58:
 998              	.LFB344:
 313:lib/BTT/src/Statistics.c **** 
 314:lib/BTT/src/Statistics.c **** /*--------------------------------------------------------------------*/
 315:lib/BTT/src/Statistics.c **** double     online_regression_r_squared(OnlineRegression* self)
 316:lib/BTT/src/Statistics.c **** {
 999              		.loc 1 316 1 is_stmt 1 view -0
 1000              		.cfi_startproc
 1001              		@ args = 0, pretend = 0, frame = 0
 1002              		@ frame_needed = 0, uses_anonymous_args = 0
 1003              		@ link register save eliminated.
 317:lib/BTT/src/Statistics.c ****   return self->r_2;
 1004              		.loc 1 317 3 view .LVU273
 318:lib/BTT/src/Statistics.c **** }
 1005              		.loc 1 318 1 is_stmt 0 view .LVU274
 1006 0000 90ED100B 		vldr.64	d0, [r0, #64]
 1007 0004 7047     		bx	lr
 1008              		.cfi_endproc
 1009              	.LFE344:
 1011              		.section	.text.online_regression_update,"ax",%progbits
 1012              		.align	1
 1013              		.global	online_regression_update
 1014              		.syntax unified
 1015              		.thumb
 1016              		.thumb_func
 1018              	online_regression_update:
 1019              	.LVL59:
 1020              	.LFB345:
 319:lib/BTT/src/Statistics.c **** 
 320:lib/BTT/src/Statistics.c **** /*--------------------------------------------------------------------*/
 321:lib/BTT/src/Statistics.c **** void online_regression_update(OnlineRegression* self, double     a_data /*x*/, double     b_data /*
 322:lib/BTT/src/Statistics.c **** {
 1021              		.loc 1 322 1 is_stmt 1 view -0
 1022              		.cfi_startproc
 1023              		@ args = 0, pretend = 0, frame = 0
 1024              		@ frame_needed = 0, uses_anonymous_args = 0
 1025              		@ link register save eliminated.
 323:lib/BTT/src/Statistics.c ****   ++self->n;
 1026              		.loc 1 323 3 view .LVU276
 1027              		.loc 1 323 9 is_stmt 0 view .LVU277
 1028 0000 0368     		ldr	r3, [r0]
 324:lib/BTT/src/Statistics.c ****   double     one_over_n = 1.0 / (double)self->n;
 1029              		.loc 1 324 14 view .LVU278
 1030 0002 B7EE006B 		vmov.f64	d6, #1.0e+0
 323:lib/BTT/src/Statistics.c ****   ++self->n;
 1031              		.loc 1 323 3 view .LVU279
 1032 0006 5A1C     		adds	r2, r3, #1
ARM GAS  /var/folders/lw/_hmdf9396f92znj902yw3qj00000gn/T//ccGkIGkl.s 			page 26


 1033              		.loc 1 324 33 view .LVU280
 1034 0008 07EE902A 		vmov	s15, r2	@ int
 323:lib/BTT/src/Statistics.c ****   ++self->n;
 1035              		.loc 1 323 3 view .LVU281
 1036 000c 0260     		str	r2, [r0]
 1037              		.loc 1 324 3 is_stmt 1 view .LVU282
 1038              		.loc 1 324 33 is_stmt 0 view .LVU283
 1039 000e B8EE677B 		vcvt.f64.u32	d7, s15
 325:lib/BTT/src/Statistics.c ****   
 326:lib/BTT/src/Statistics.c ****   double     n_minus_1_over_n = (self->n-1) * one_over_n;
 327:lib/BTT/src/Statistics.c ****   double     d_a = a_data - self->a_mean;
 1040              		.loc 1 327 33 view .LVU284
 1041 0012 90ED024B 		vldr.64	d4, [r0, #8]
 324:lib/BTT/src/Statistics.c ****   double     one_over_n = 1.0 / (double)self->n;
 1042              		.loc 1 324 14 view .LVU285
 1043 0016 86EE073B 		vdiv.f64	d3, d6, d7
 1044              	.LVL60:
 326:lib/BTT/src/Statistics.c ****   double     d_a = a_data - self->a_mean;
 1045              		.loc 1 326 3 is_stmt 1 view .LVU286
 326:lib/BTT/src/Statistics.c ****   double     d_a = a_data - self->a_mean;
 1046              		.loc 1 326 45 is_stmt 0 view .LVU287
 1047 001a 07EE903A 		vmov	s15, r3	@ int
 1048 001e B8EE677B 		vcvt.f64.u32	d7, s15
 1049              		.loc 1 327 14 view .LVU288
 1050 0022 30EE440B 		vsub.f64	d0, d0, d4
 1051              	.LVL61:
 328:lib/BTT/src/Statistics.c ****   double     d_b = b_data - self->b_mean;
 329:lib/BTT/src/Statistics.c ****   
 330:lib/BTT/src/Statistics.c ****   double     new_m, new_b;
 331:lib/BTT/src/Statistics.c ****   self->a_variance += (n_minus_1_over_n * d_a * d_a - self->a_variance) * one_over_n;
 1052              		.loc 1 331 20 view .LVU289
 1053 0026 90ED066B 		vldr.64	d6, [r0, #24]
 322:lib/BTT/src/Statistics.c ****   ++self->n;
 1054              		.loc 1 322 1 view .LVU290
 1055 002a 2DED048B 		vpush.64	{d8, d9}
 1056              		.cfi_def_cfa_offset 16
 1057              		.cfi_offset 80, -16
 1058              		.cfi_offset 81, -12
 1059              		.cfi_offset 82, -8
 1060              		.cfi_offset 83, -4
 328:lib/BTT/src/Statistics.c ****   double     d_b = b_data - self->b_mean;
 1061              		.loc 1 328 33 view .LVU291
 1062 002e 90ED045B 		vldr.64	d5, [r0, #16]
 1063              		.loc 1 331 53 view .LVU292
 1064 0032 B0EE462B 		vmov.f64	d2, d6
 328:lib/BTT/src/Statistics.c ****   double     d_b = b_data - self->b_mean;
 1065              		.loc 1 328 14 view .LVU293
 1066 0036 31EE451B 		vsub.f64	d1, d1, d5
 1067              	.LVL62:
 326:lib/BTT/src/Statistics.c ****   double     d_a = a_data - self->a_mean;
 1068              		.loc 1 326 14 view .LVU294
 1069 003a 27EE037B 		vmul.f64	d7, d7, d3
 1070              	.LVL63:
 327:lib/BTT/src/Statistics.c ****   double     d_b = b_data - self->b_mean;
 1071              		.loc 1 327 3 is_stmt 1 view .LVU295
 328:lib/BTT/src/Statistics.c ****   double     d_b = b_data - self->b_mean;
 1072              		.loc 1 328 3 view .LVU296
ARM GAS  /var/folders/lw/_hmdf9396f92znj902yw3qj00000gn/T//ccGkIGkl.s 			page 27


 330:lib/BTT/src/Statistics.c ****   self->a_variance += (n_minus_1_over_n * d_a * d_a - self->a_variance) * one_over_n;
 1073              		.loc 1 330 3 view .LVU297
 1074              		.loc 1 331 3 view .LVU298
 332:lib/BTT/src/Statistics.c ****   self->b_variance += (n_minus_1_over_n * d_b * d_b - self->b_variance) * one_over_n;
 333:lib/BTT/src/Statistics.c ****   self->covariance += (n_minus_1_over_n * d_a * d_b - self->covariance) * one_over_n;
 334:lib/BTT/src/Statistics.c ****   
 335:lib/BTT/src/Statistics.c ****   self->a_mean += d_a * one_over_n;
 1075              		.loc 1 335 16 is_stmt 0 view .LVU299
 1076 003e A3EE004B 		vfma.f64	d4, d3, d0
 331:lib/BTT/src/Statistics.c ****   self->b_variance += (n_minus_1_over_n * d_b * d_b - self->b_variance) * one_over_n;
 1077              		.loc 1 331 41 view .LVU300
 1078 0042 27EE008B 		vmul.f64	d8, d7, d0
 332:lib/BTT/src/Statistics.c ****   self->b_variance += (n_minus_1_over_n * d_b * d_b - self->b_variance) * one_over_n;
 1079              		.loc 1 332 41 view .LVU301
 1080 0046 27EE017B 		vmul.f64	d7, d7, d1
 1081              	.LVL64:
 331:lib/BTT/src/Statistics.c ****   self->b_variance += (n_minus_1_over_n * d_b * d_b - self->b_variance) * one_over_n;
 1082              		.loc 1 331 53 view .LVU302
 1083 004a 98EE002B 		vfnms.f64	d2, d8, d0
 336:lib/BTT/src/Statistics.c ****   self->b_mean += d_b * one_over_n;
 1084              		.loc 1 336 16 view .LVU303
 1085 004e A3EE015B 		vfma.f64	d5, d3, d1
 335:lib/BTT/src/Statistics.c ****   self->b_mean += d_b * one_over_n;
 1086              		.loc 1 335 16 view .LVU304
 1087 0052 80ED024B 		vstr.64	d4, [r0, #8]
 331:lib/BTT/src/Statistics.c ****   self->b_variance += (n_minus_1_over_n * d_b * d_b - self->b_variance) * one_over_n;
 1088              		.loc 1 331 20 view .LVU305
 1089 0056 A2EE036B 		vfma.f64	d6, d2, d3
 332:lib/BTT/src/Statistics.c ****   self->covariance += (n_minus_1_over_n * d_a * d_b - self->covariance) * one_over_n;
 1090              		.loc 1 332 20 view .LVU306
 1091 005a 90ED082B 		vldr.64	d2, [r0, #32]
 1092              		.loc 1 336 16 view .LVU307
 1093 005e 80ED045B 		vstr.64	d5, [r0, #16]
 332:lib/BTT/src/Statistics.c ****   self->covariance += (n_minus_1_over_n * d_a * d_b - self->covariance) * one_over_n;
 1094              		.loc 1 332 53 view .LVU308
 1095 0062 B0EE429B 		vmov.f64	d9, d2
 337:lib/BTT/src/Statistics.c ****   
 338:lib/BTT/src/Statistics.c ****   if((self->a_variance == 0) || (self->covariance == 0))
 1096              		.loc 1 338 5 view .LVU309
 1097 0066 B5EE406B 		vcmp.f64	d6, #0
 332:lib/BTT/src/Statistics.c ****   self->covariance += (n_minus_1_over_n * d_a * d_b - self->covariance) * one_over_n;
 1098              		.loc 1 332 53 view .LVU310
 1099 006a 97EE019B 		vfnms.f64	d9, d7, d1
 1100              		.loc 1 338 5 view .LVU311
 1101 006e F1EE10FA 		vmrs	APSR_nzcv, FPSCR
 333:lib/BTT/src/Statistics.c ****   
 1102              		.loc 1 333 20 view .LVU312
 1103 0072 90ED0A7B 		vldr.64	d7, [r0, #40]
 331:lib/BTT/src/Statistics.c ****   self->b_variance += (n_minus_1_over_n * d_b * d_b - self->b_variance) * one_over_n;
 1104              		.loc 1 331 20 view .LVU313
 1105 0076 80ED066B 		vstr.64	d6, [r0, #24]
 332:lib/BTT/src/Statistics.c ****   self->covariance += (n_minus_1_over_n * d_a * d_b - self->covariance) * one_over_n;
 1106              		.loc 1 332 3 is_stmt 1 view .LVU314
 332:lib/BTT/src/Statistics.c ****   self->covariance += (n_minus_1_over_n * d_a * d_b - self->covariance) * one_over_n;
 1107              		.loc 1 332 20 is_stmt 0 view .LVU315
 1108 007a A9EE032B 		vfma.f64	d2, d9, d3
 333:lib/BTT/src/Statistics.c ****   
ARM GAS  /var/folders/lw/_hmdf9396f92znj902yw3qj00000gn/T//ccGkIGkl.s 			page 28


 1109              		.loc 1 333 53 view .LVU316
 1110 007e B0EE479B 		vmov.f64	d9, d7
 1111 0082 98EE019B 		vfnms.f64	d9, d8, d1
 332:lib/BTT/src/Statistics.c ****   self->covariance += (n_minus_1_over_n * d_a * d_b - self->covariance) * one_over_n;
 1112              		.loc 1 332 20 view .LVU317
 1113 0086 80ED082B 		vstr.64	d2, [r0, #32]
 333:lib/BTT/src/Statistics.c ****   
 1114              		.loc 1 333 3 is_stmt 1 view .LVU318
 333:lib/BTT/src/Statistics.c ****   
 1115              		.loc 1 333 20 is_stmt 0 view .LVU319
 1116 008a A9EE037B 		vfma.f64	d7, d9, d3
 1117 008e 80ED0A7B 		vstr.64	d7, [r0, #40]
 335:lib/BTT/src/Statistics.c ****   self->b_mean += d_b * one_over_n;
 1118              		.loc 1 335 3 is_stmt 1 view .LVU320
 336:lib/BTT/src/Statistics.c ****   
 1119              		.loc 1 336 3 view .LVU321
 1120              		.loc 1 338 3 view .LVU322
 1121              		.loc 1 338 5 is_stmt 0 view .LVU323
 1122 0092 14D0     		beq	.L59
 1123              		.loc 1 338 30 discriminator 1 view .LVU324
 1124 0094 B5EE407B 		vcmp.f64	d7, #0
 1125 0098 F1EE10FA 		vmrs	APSR_nzcv, FPSCR
 1126 009c 0FD0     		beq	.L59
 339:lib/BTT/src/Statistics.c ****     return;
 340:lib/BTT/src/Statistics.c ****   
 341:lib/BTT/src/Statistics.c ****   new_m = self->covariance / self->a_variance;
 1127              		.loc 1 341 3 is_stmt 1 view .LVU325
 1128              		.loc 1 341 9 is_stmt 0 view .LVU326
 1129 009e 87EE063B 		vdiv.f64	d3, d7, d6
 1130              	.LVL65:
 342:lib/BTT/src/Statistics.c ****   new_b = self->b_mean - (new_m * self->a_mean);
 1131              		.loc 1 342 3 is_stmt 1 view .LVU327
 343:lib/BTT/src/Statistics.c ****   self->m = new_m;
 344:lib/BTT/src/Statistics.c ****   self->b = new_b;
 345:lib/BTT/src/Statistics.c ****   self->r_2 = (self->covariance * self->covariance) / (self->a_variance * self->b_variance);
 1132              		.loc 1 345 33 is_stmt 0 view .LVU328
 1133 00a2 27EE077B 		vmul.f64	d7, d7, d7
 1134              		.loc 1 345 73 view .LVU329
 1135 00a6 26EE026B 		vmul.f64	d6, d6, d2
 342:lib/BTT/src/Statistics.c ****   new_b = self->b_mean - (new_m * self->a_mean);
 1136              		.loc 1 342 9 view .LVU330
 1137 00aa A4EE435B 		vfms.f64	d5, d4, d3
 1138              	.LVL66:
 343:lib/BTT/src/Statistics.c ****   self->m = new_m;
 1139              		.loc 1 343 3 is_stmt 1 view .LVU331
 343:lib/BTT/src/Statistics.c ****   self->m = new_m;
 1140              		.loc 1 343 11 is_stmt 0 view .LVU332
 1141 00ae 80ED0C3B 		vstr.64	d3, [r0, #48]
 344:lib/BTT/src/Statistics.c ****   self->r_2 = (self->covariance * self->covariance) / (self->a_variance * self->b_variance);
 1142              		.loc 1 344 3 is_stmt 1 view .LVU333
 344:lib/BTT/src/Statistics.c ****   self->r_2 = (self->covariance * self->covariance) / (self->a_variance * self->b_variance);
 1143              		.loc 1 344 11 is_stmt 0 view .LVU334
 1144 00b2 80ED0E5B 		vstr.64	d5, [r0, #56]
 1145              		.loc 1 345 3 is_stmt 1 view .LVU335
 1146              		.loc 1 345 53 is_stmt 0 view .LVU336
 1147 00b6 87EE065B 		vdiv.f64	d5, d7, d6
 1148              	.LVL67:
ARM GAS  /var/folders/lw/_hmdf9396f92znj902yw3qj00000gn/T//ccGkIGkl.s 			page 29


 1149              		.loc 1 345 13 view .LVU337
 1150 00ba 80ED105B 		vstr.64	d5, [r0, #64]
 1151              	.LVL68:
 1152              	.L59:
 346:lib/BTT/src/Statistics.c **** }
 1153              		.loc 1 346 1 view .LVU338
 1154 00be BDEC048B 		vldm	sp!, {d8-d9}
 1155              		.cfi_restore 82
 1156              		.cfi_restore 83
 1157              		.cfi_restore 80
 1158              		.cfi_restore 81
 1159              		.cfi_def_cfa_offset 0
 1160 00c2 7047     		bx	lr
 1161              		.cfi_endproc
 1162              	.LFE345:
 1164              		.section	.text.adaptive_threshold_clear,"ax",%progbits
 1165              		.align	1
 1166              		.global	adaptive_threshold_clear
 1167              		.syntax unified
 1168              		.thumb
 1169              		.thumb_func
 1171              	adaptive_threshold_clear:
 1172              	.LVL69:
 1173              	.LFB348:
 347:lib/BTT/src/Statistics.c **** 
 348:lib/BTT/src/Statistics.c **** /*--------------------------------------------------------------------*/
 349:lib/BTT/src/Statistics.c **** /*----------_-----------_---_-----------_____-_---------------_----_----    _    _ 
 350:lib/BTT/src/Statistics.c ****     /_\  __| |__ _ _ __| |_(_)_ _____  |_   _| |_  _ _ ___ __| |_ | |_  ___| |__| |
 351:lib/BTT/src/Statistics.c ****    / _ \/ _` / _` | '_ \  _| \ V / -_)   | | | ' \| '_/ -_|_-< ' \| ' \/ _ \ / _` |
 352:lib/BTT/src/Statistics.c ****   /_/ \_\__,_\__,_| .__/\__|_|\_/\___|   |_| |_||_|_| \___/__/_||_|_||_\___/_\__,_|
 353:lib/BTT/src/Statistics.c **** ------------------|_|---------------------------------------------------
 354:lib/BTT/src/Statistics.c ****   Adaptive threshhold tells you when your signal goes a specified number
 355:lib/BTT/src/Statistics.c ****   of standard deviations above or below a moving average of a filtered
 356:lib/BTT/src/Statistics.c ****   version of your signal. update() returns +1 or -1 whenever your signal
 357:lib/BTT/src/Statistics.c ****   transitions to being above or below the threshold.
 358:lib/BTT/src/Statistics.c **** ----------------------------------------------------------------------*/
 359:lib/BTT/src/Statistics.c **** struct opaque_adaptive_threshold_struct
 360:lib/BTT/src/Statistics.c **** {
 361:lib/BTT/src/Statistics.c ****   double         smoothing; //coefficient 0 ~ 1
 362:lib/BTT/src/Statistics.c ****   double         threshold; //standard deviations from filtered signal
 363:lib/BTT/src/Statistics.c ****   double         min;
 364:lib/BTT/src/Statistics.c ****   // step function (-1, 0, 1) that will hold its value while input is 
 365:lib/BTT/src/Statistics.c ****   // above threshold. update() only returns +1 or -1 at the moment
 366:lib/BTT/src/Statistics.c ****   // onset_signal transitions to +1 or -1;
 367:lib/BTT/src/Statistics.c ****   double         onset_signal;
 368:lib/BTT/src/Statistics.c ****   
 369:lib/BTT/src/Statistics.c ****   //(start with high variance to avoid spurious onsets on first iterations)
 370:lib/BTT/src/Statistics.c ****   MovingAverage* avg;
 371:lib/BTT/src/Statistics.c ****   double         filtered_x;
 372:lib/BTT/src/Statistics.c **** };
 373:lib/BTT/src/Statistics.c **** 
 374:lib/BTT/src/Statistics.c **** /*--------------------------------------------------------------------*/
 375:lib/BTT/src/Statistics.c **** AdaptiveThreshold* adaptive_threshold_new(unsigned N)
 376:lib/BTT/src/Statistics.c **** {
 377:lib/BTT/src/Statistics.c ****   AdaptiveThreshold* self = calloc(1, sizeof(*self));
 378:lib/BTT/src/Statistics.c ****   if(self != NULL)
 379:lib/BTT/src/Statistics.c ****     {
ARM GAS  /var/folders/lw/_hmdf9396f92znj902yw3qj00000gn/T//ccGkIGkl.s 			page 30


 380:lib/BTT/src/Statistics.c ****       self->avg = moving_average_new(N);
 381:lib/BTT/src/Statistics.c ****       if(self->avg == NULL)
 382:lib/BTT/src/Statistics.c ****         return adaptive_threshold_destroy(self);
 383:lib/BTT/src/Statistics.c **** 
 384:lib/BTT/src/Statistics.c ****       adaptive_threshold_init(self);
 385:lib/BTT/src/Statistics.c ****     }
 386:lib/BTT/src/Statistics.c ****   return self;
 387:lib/BTT/src/Statistics.c **** }
 388:lib/BTT/src/Statistics.c **** 
 389:lib/BTT/src/Statistics.c **** /*--------------------------------------------------------------------*/
 390:lib/BTT/src/Statistics.c **** void adaptive_threshold_init(AdaptiveThreshold* self)
 391:lib/BTT/src/Statistics.c **** {
 392:lib/BTT/src/Statistics.c ****   self->smoothing  = 0.5; //coefficient 0 ~ 1
 393:lib/BTT/src/Statistics.c ****   self->threshold  = 3.5; //standard deviations from filtered signal
 394:lib/BTT/src/Statistics.c ****   self->min        = 0;
 395:lib/BTT/src/Statistics.c ****   adaptive_threshold_clear(self);
 396:lib/BTT/src/Statistics.c **** }
 397:lib/BTT/src/Statistics.c **** 
 398:lib/BTT/src/Statistics.c **** /*--------------------------------------------------------------------*/
 399:lib/BTT/src/Statistics.c **** void adaptive_threshold_clear(AdaptiveThreshold* self)
 400:lib/BTT/src/Statistics.c **** {
 1174              		.loc 1 400 1 is_stmt 1 view -0
 1175              		.cfi_startproc
 1176              		@ args = 0, pretend = 0, frame = 0
 1177              		@ frame_needed = 0, uses_anonymous_args = 0
 401:lib/BTT/src/Statistics.c ****   self->onset_signal = 0;
 1178              		.loc 1 401 3 view .LVU340
 400:lib/BTT/src/Statistics.c ****   self->onset_signal = 0;
 1179              		.loc 1 400 1 is_stmt 0 view .LVU341
 1180 0000 D0B5     		push	{r4, r6, r7, lr}
 1181              		.cfi_def_cfa_offset 16
 1182              		.cfi_offset 4, -16
 1183              		.cfi_offset 6, -12
 1184              		.cfi_offset 7, -8
 1185              		.cfi_offset 14, -4
 1186              		.loc 1 401 22 view .LVU342
 1187 0002 0026     		movs	r6, #0
 1188 0004 0027     		movs	r7, #0
 400:lib/BTT/src/Statistics.c ****   self->onset_signal = 0;
 1189              		.loc 1 400 1 view .LVU343
 1190 0006 0446     		mov	r4, r0
 1191              		.loc 1 401 22 view .LVU344
 1192 0008 C0E90667 		strd	r6, [r0, #24]
 402:lib/BTT/src/Statistics.c ****   moving_average_init(self->avg);
 1193              		.loc 1 402 3 is_stmt 1 view .LVU345
 1194 000c 006A     		ldr	r0, [r0, #32]
 1195              	.LVL70:
 1196              		.loc 1 402 3 is_stmt 0 view .LVU346
 1197 000e FFF7FEFF 		bl	moving_average_init
 1198              	.LVL71:
 403:lib/BTT/src/Statistics.c ****   self->filtered_x   = 0;
 1199              		.loc 1 403 3 is_stmt 1 view .LVU347
 1200              		.loc 1 403 22 is_stmt 0 view .LVU348
 1201 0012 C4E90A67 		strd	r6, [r4, #40]
 404:lib/BTT/src/Statistics.c **** }
 1202              		.loc 1 404 1 view .LVU349
 1203 0016 D0BD     		pop	{r4, r6, r7, pc}
ARM GAS  /var/folders/lw/_hmdf9396f92znj902yw3qj00000gn/T//ccGkIGkl.s 			page 31


 1204              		.loc 1 404 1 view .LVU350
 1205              		.cfi_endproc
 1206              	.LFE348:
 1208              		.section	.text.adaptive_threshold_init,"ax",%progbits
 1209              		.align	1
 1210              		.global	adaptive_threshold_init
 1211              		.syntax unified
 1212              		.thumb
 1213              		.thumb_func
 1215              	adaptive_threshold_init:
 1216              	.LVL72:
 1217              	.LFB347:
 391:lib/BTT/src/Statistics.c ****   self->smoothing  = 0.5; //coefficient 0 ~ 1
 1218              		.loc 1 391 1 is_stmt 1 view -0
 1219              		.cfi_startproc
 1220              		@ args = 0, pretend = 0, frame = 0
 1221              		@ frame_needed = 0, uses_anonymous_args = 0
 1222              		@ link register save eliminated.
 392:lib/BTT/src/Statistics.c ****   self->threshold  = 3.5; //standard deviations from filtered signal
 1223              		.loc 1 392 3 view .LVU352
 391:lib/BTT/src/Statistics.c ****   self->smoothing  = 0.5; //coefficient 0 ~ 1
 1224              		.loc 1 391 1 is_stmt 0 view .LVU353
 1225 0000 30B4     		push	{r4, r5}
 1226              		.cfi_def_cfa_offset 8
 1227              		.cfi_offset 4, -8
 1228              		.cfi_offset 5, -4
 392:lib/BTT/src/Statistics.c ****   self->threshold  = 3.5; //standard deviations from filtered signal
 1229              		.loc 1 392 20 view .LVU354
 1230 0002 0024     		movs	r4, #0
 1231 0004 064D     		ldr	r5, .L63
 1232 0006 C0E90045 		strd	r4, [r0]
 393:lib/BTT/src/Statistics.c ****   self->min        = 0;
 1233              		.loc 1 393 3 is_stmt 1 view .LVU355
 393:lib/BTT/src/Statistics.c ****   self->min        = 0;
 1234              		.loc 1 393 20 is_stmt 0 view .LVU356
 1235 000a 0024     		movs	r4, #0
 1236 000c 054D     		ldr	r5, .L63+4
 1237 000e C0E90245 		strd	r4, [r0, #8]
 394:lib/BTT/src/Statistics.c ****   adaptive_threshold_clear(self);
 1238              		.loc 1 394 3 is_stmt 1 view .LVU357
 394:lib/BTT/src/Statistics.c ****   adaptive_threshold_clear(self);
 1239              		.loc 1 394 20 is_stmt 0 view .LVU358
 1240 0012 0024     		movs	r4, #0
 1241 0014 0025     		movs	r5, #0
 1242 0016 C0E90445 		strd	r4, [r0, #16]
 395:lib/BTT/src/Statistics.c **** }
 1243              		.loc 1 395 3 is_stmt 1 view .LVU359
 396:lib/BTT/src/Statistics.c **** 
 1244              		.loc 1 396 1 is_stmt 0 view .LVU360
 1245 001a 30BC     		pop	{r4, r5}
 1246              		.cfi_restore 5
 1247              		.cfi_restore 4
 1248              		.cfi_def_cfa_offset 0
 395:lib/BTT/src/Statistics.c **** }
 1249              		.loc 1 395 3 view .LVU361
 1250 001c FFF7FEBF 		b	adaptive_threshold_clear
 1251              	.LVL73:
ARM GAS  /var/folders/lw/_hmdf9396f92znj902yw3qj00000gn/T//ccGkIGkl.s 			page 32


 1252              	.L64:
 395:lib/BTT/src/Statistics.c **** }
 1253              		.loc 1 395 3 view .LVU362
 1254              		.align	2
 1255              	.L63:
 1256 0020 0000E03F 		.word	1071644672
 1257 0024 00000C40 		.word	1074528256
 1258              		.cfi_endproc
 1259              	.LFE347:
 1261              		.section	.text.adaptive_threshold_destroy,"ax",%progbits
 1262              		.align	1
 1263              		.global	adaptive_threshold_destroy
 1264              		.syntax unified
 1265              		.thumb
 1266              		.thumb_func
 1268              	adaptive_threshold_destroy:
 1269              	.LVL74:
 1270              	.LFB349:
 405:lib/BTT/src/Statistics.c **** 
 406:lib/BTT/src/Statistics.c **** /*--------------------------------------------------------------------*/
 407:lib/BTT/src/Statistics.c **** AdaptiveThreshold* adaptive_threshold_destroy(AdaptiveThreshold* self)
 408:lib/BTT/src/Statistics.c **** {
 1271              		.loc 1 408 1 is_stmt 1 view -0
 1272              		.cfi_startproc
 1273              		@ args = 0, pretend = 0, frame = 0
 1274              		@ frame_needed = 0, uses_anonymous_args = 0
 409:lib/BTT/src/Statistics.c ****   if(self != NULL)
 1275              		.loc 1 409 3 view .LVU364
 408:lib/BTT/src/Statistics.c ****   if(self != NULL)
 1276              		.loc 1 408 1 is_stmt 0 view .LVU365
 1277 0000 10B5     		push	{r4, lr}
 1278              		.cfi_def_cfa_offset 8
 1279              		.cfi_offset 4, -8
 1280              		.cfi_offset 14, -4
 1281              		.loc 1 409 5 view .LVU366
 1282 0002 0446     		mov	r4, r0
 1283 0004 28B1     		cbz	r0, .L66
 1284              	.LVL75:
 1285              	.LBB34:
 1286              	.LBI34:
 407:lib/BTT/src/Statistics.c **** {
 1287              		.loc 1 407 20 is_stmt 1 view .LVU367
 1288              	.LBB35:
 410:lib/BTT/src/Statistics.c ****     {
 411:lib/BTT/src/Statistics.c ****       self->avg = moving_average_destroy(self->avg);
 1289              		.loc 1 411 7 view .LVU368
 1290              		.loc 1 411 19 is_stmt 0 view .LVU369
 1291 0006 006A     		ldr	r0, [r0, #32]
 1292              	.LVL76:
 1293              		.loc 1 411 19 view .LVU370
 1294 0008 FFF7FEFF 		bl	moving_average_destroy
 1295              	.LVL77:
 412:lib/BTT/src/Statistics.c ****       free(self);
 1296              		.loc 1 412 7 is_stmt 1 view .LVU371
 1297 000c 2046     		mov	r0, r4
 1298 000e FFF7FEFF 		bl	free
 1299              	.LVL78:
ARM GAS  /var/folders/lw/_hmdf9396f92znj902yw3qj00000gn/T//ccGkIGkl.s 			page 33


 1300              	.L66:
 1301              		.loc 1 412 7 is_stmt 0 view .LVU372
 1302              	.LBE35:
 1303              	.LBE34:
 413:lib/BTT/src/Statistics.c ****     }
 414:lib/BTT/src/Statistics.c ****   return (AdaptiveThreshold*) NULL;
 1304              		.loc 1 414 3 is_stmt 1 view .LVU373
 415:lib/BTT/src/Statistics.c **** }
 1305              		.loc 1 415 1 is_stmt 0 view .LVU374
 1306 0012 0020     		movs	r0, #0
 1307 0014 10BD     		pop	{r4, pc}
 1308              		.loc 1 415 1 view .LVU375
 1309              		.cfi_endproc
 1310              	.LFE349:
 1312              		.section	.text.adaptive_threshold_new,"ax",%progbits
 1313              		.align	1
 1314              		.global	adaptive_threshold_new
 1315              		.syntax unified
 1316              		.thumb
 1317              		.thumb_func
 1319              	adaptive_threshold_new:
 1320              	.LVL79:
 1321              	.LFB346:
 376:lib/BTT/src/Statistics.c ****   AdaptiveThreshold* self = calloc(1, sizeof(*self));
 1322              		.loc 1 376 1 is_stmt 1 view -0
 1323              		.cfi_startproc
 1324              		@ args = 0, pretend = 0, frame = 0
 1325              		@ frame_needed = 0, uses_anonymous_args = 0
 377:lib/BTT/src/Statistics.c ****   if(self != NULL)
 1326              		.loc 1 377 3 view .LVU377
 376:lib/BTT/src/Statistics.c ****   AdaptiveThreshold* self = calloc(1, sizeof(*self));
 1327              		.loc 1 376 1 is_stmt 0 view .LVU378
 1328 0000 38B5     		push	{r3, r4, r5, lr}
 1329              		.cfi_def_cfa_offset 16
 1330              		.cfi_offset 3, -16
 1331              		.cfi_offset 4, -12
 1332              		.cfi_offset 5, -8
 1333              		.cfi_offset 14, -4
 377:lib/BTT/src/Statistics.c ****   if(self != NULL)
 1334              		.loc 1 377 29 view .LVU379
 1335 0002 3021     		movs	r1, #48
 376:lib/BTT/src/Statistics.c ****   AdaptiveThreshold* self = calloc(1, sizeof(*self));
 1336              		.loc 1 376 1 view .LVU380
 1337 0004 0546     		mov	r5, r0
 377:lib/BTT/src/Statistics.c ****   if(self != NULL)
 1338              		.loc 1 377 29 view .LVU381
 1339 0006 0120     		movs	r0, #1
 1340              	.LVL80:
 377:lib/BTT/src/Statistics.c ****   if(self != NULL)
 1341              		.loc 1 377 29 view .LVU382
 1342 0008 FFF7FEFF 		bl	calloc
 1343              	.LVL81:
 378:lib/BTT/src/Statistics.c ****     {
 1344              		.loc 1 378 3 is_stmt 1 view .LVU383
 378:lib/BTT/src/Statistics.c ****     {
 1345              		.loc 1 378 5 is_stmt 0 view .LVU384
 1346 000c 0446     		mov	r4, r0
ARM GAS  /var/folders/lw/_hmdf9396f92znj902yw3qj00000gn/T//ccGkIGkl.s 			page 34


 1347 000e 60B1     		cbz	r0, .L70
 380:lib/BTT/src/Statistics.c ****       if(self->avg == NULL)
 1348              		.loc 1 380 7 is_stmt 1 view .LVU385
 380:lib/BTT/src/Statistics.c ****       if(self->avg == NULL)
 1349              		.loc 1 380 19 is_stmt 0 view .LVU386
 1350 0010 2846     		mov	r0, r5
 1351              	.LVL82:
 380:lib/BTT/src/Statistics.c ****       if(self->avg == NULL)
 1352              		.loc 1 380 19 view .LVU387
 1353 0012 FFF7FEFF 		bl	moving_average_new
 1354              	.LVL83:
 380:lib/BTT/src/Statistics.c ****       if(self->avg == NULL)
 1355              		.loc 1 380 17 view .LVU388
 1356 0016 2062     		str	r0, [r4, #32]
 381:lib/BTT/src/Statistics.c ****         return adaptive_threshold_destroy(self);
 1357              		.loc 1 381 7 is_stmt 1 view .LVU389
 381:lib/BTT/src/Statistics.c ****         return adaptive_threshold_destroy(self);
 1358              		.loc 1 381 9 is_stmt 0 view .LVU390
 1359 0018 20B9     		cbnz	r0, .L72
 382:lib/BTT/src/Statistics.c **** 
 1360              		.loc 1 382 9 is_stmt 1 view .LVU391
 382:lib/BTT/src/Statistics.c **** 
 1361              		.loc 1 382 16 is_stmt 0 view .LVU392
 1362 001a 2046     		mov	r0, r4
 387:lib/BTT/src/Statistics.c **** 
 1363              		.loc 1 387 1 view .LVU393
 1364 001c BDE83840 		pop	{r3, r4, r5, lr}
 1365              		.cfi_remember_state
 1366              		.cfi_restore 14
 1367              		.cfi_restore 5
 1368              		.cfi_restore 4
 1369              		.cfi_restore 3
 1370              		.cfi_def_cfa_offset 0
 1371              	.LVL84:
 382:lib/BTT/src/Statistics.c **** 
 1372              		.loc 1 382 16 view .LVU394
 1373 0020 FFF7FEBF 		b	adaptive_threshold_destroy
 1374              	.LVL85:
 1375              	.L72:
 1376              		.cfi_restore_state
 384:lib/BTT/src/Statistics.c ****     }
 1377              		.loc 1 384 7 is_stmt 1 view .LVU395
 1378 0024 2046     		mov	r0, r4
 1379 0026 FFF7FEFF 		bl	adaptive_threshold_init
 1380              	.LVL86:
 1381              	.L70:
 387:lib/BTT/src/Statistics.c **** 
 1382              		.loc 1 387 1 is_stmt 0 view .LVU396
 1383 002a 2046     		mov	r0, r4
 1384 002c 38BD     		pop	{r3, r4, r5, pc}
 387:lib/BTT/src/Statistics.c **** 
 1385              		.loc 1 387 1 view .LVU397
 1386              		.cfi_endproc
 1387              	.LFE346:
 1389              		.section	.text.adaptive_threshold_smoothing,"ax",%progbits
 1390              		.align	1
 1391              		.global	adaptive_threshold_smoothing
ARM GAS  /var/folders/lw/_hmdf9396f92znj902yw3qj00000gn/T//ccGkIGkl.s 			page 35


 1392              		.syntax unified
 1393              		.thumb
 1394              		.thumb_func
 1396              	adaptive_threshold_smoothing:
 1397              	.LVL87:
 1398              	.LFB350:
 416:lib/BTT/src/Statistics.c **** 
 417:lib/BTT/src/Statistics.c **** /*--------------------------------------------------------------------*/
 418:lib/BTT/src/Statistics.c **** double     adaptive_threshold_smoothing(AdaptiveThreshold* self)
 419:lib/BTT/src/Statistics.c **** {
 1399              		.loc 1 419 1 is_stmt 1 view -0
 1400              		.cfi_startproc
 1401              		@ args = 0, pretend = 0, frame = 0
 1402              		@ frame_needed = 0, uses_anonymous_args = 0
 1403              		@ link register save eliminated.
 420:lib/BTT/src/Statistics.c ****   return self->smoothing;
 1404              		.loc 1 420 3 view .LVU399
 421:lib/BTT/src/Statistics.c **** }
 1405              		.loc 1 421 1 is_stmt 0 view .LVU400
 1406 0000 90ED000B 		vldr.64	d0, [r0]
 1407 0004 7047     		bx	lr
 1408              		.cfi_endproc
 1409              	.LFE350:
 1411              		.section	.text.adaptive_threshold_set_smoothing,"ax",%progbits
 1412              		.align	1
 1413              		.global	adaptive_threshold_set_smoothing
 1414              		.syntax unified
 1415              		.thumb
 1416              		.thumb_func
 1418              	adaptive_threshold_set_smoothing:
 1419              	.LVL88:
 1420              	.LFB351:
 422:lib/BTT/src/Statistics.c **** 
 423:lib/BTT/src/Statistics.c **** /*--------------------------------------------------------------------*/
 424:lib/BTT/src/Statistics.c **** void adaptive_threshold_set_smoothing(AdaptiveThreshold* self, double     coefficient)
 425:lib/BTT/src/Statistics.c **** {
 1421              		.loc 1 425 1 is_stmt 1 view -0
 1422              		.cfi_startproc
 1423              		@ args = 0, pretend = 0, frame = 0
 1424              		@ frame_needed = 0, uses_anonymous_args = 0
 1425              		@ link register save eliminated.
 426:lib/BTT/src/Statistics.c ****   coefficient = (coefficient > 1) ? 1 : ((coefficient < 0) ? 0 : coefficient);
 1426              		.loc 1 426 3 view .LVU402
 1427              		.loc 1 426 39 is_stmt 0 view .LVU403
 1428 0000 B7EE007B 		vmov.f64	d7, #1.0e+0
 1429 0004 B4EEC70B 		vcmpe.f64	d0, d7
 1430 0008 F1EE10FA 		vmrs	APSR_nzcv, FPSCR
 1431 000c 07DC     		bgt	.L79
 1432              		.loc 1 426 64 discriminator 2 view .LVU404
 1433 000e B5EEC00B 		vcmpe.f64	d0, #0
 1434 0012 F1EE10FA 		vmrs	APSR_nzcv, FPSCR
 1435 0016 04D5     		bpl	.L78
 1436              		.loc 1 426 64 view .LVU405
 1437 0018 9FED030B 		vldr.64	d0, .L81
 1438              	.LVL89:
 1439              		.loc 1 426 64 view .LVU406
 1440 001c 01E0     		b	.L78
ARM GAS  /var/folders/lw/_hmdf9396f92znj902yw3qj00000gn/T//ccGkIGkl.s 			page 36


 1441              	.LVL90:
 1442              	.L79:
 1443              		.loc 1 426 39 view .LVU407
 1444 001e B0EE470B 		vmov.f64	d0, d7
 1445              	.LVL91:
 1446              	.L78:
 427:lib/BTT/src/Statistics.c ****   self->smoothing = coefficient;
 1447              		.loc 1 427 3 is_stmt 1 discriminator 8 view .LVU408
 1448              		.loc 1 427 19 is_stmt 0 discriminator 8 view .LVU409
 1449 0022 80ED000B 		vstr.64	d0, [r0]
 428:lib/BTT/src/Statistics.c **** }
 1450              		.loc 1 428 1 discriminator 8 view .LVU410
 1451 0026 7047     		bx	lr
 1452              	.L82:
 1453              		.align	3
 1454              	.L81:
 1455 0028 00000000 		.word	0
 1456 002c 00000000 		.word	0
 1457              		.cfi_endproc
 1458              	.LFE351:
 1460              		.section	.text.adaptive_threshold_threshold,"ax",%progbits
 1461              		.align	1
 1462              		.global	adaptive_threshold_threshold
 1463              		.syntax unified
 1464              		.thumb
 1465              		.thumb_func
 1467              	adaptive_threshold_threshold:
 1468              	.LVL92:
 1469              	.LFB352:
 429:lib/BTT/src/Statistics.c **** 
 430:lib/BTT/src/Statistics.c **** /*--------------------------------------------------------------------*/
 431:lib/BTT/src/Statistics.c **** double     adaptive_threshold_threshold(AdaptiveThreshold* self)
 432:lib/BTT/src/Statistics.c **** {
 1470              		.loc 1 432 1 is_stmt 1 view -0
 1471              		.cfi_startproc
 1472              		@ args = 0, pretend = 0, frame = 0
 1473              		@ frame_needed = 0, uses_anonymous_args = 0
 1474              		@ link register save eliminated.
 433:lib/BTT/src/Statistics.c ****   return self->threshold;
 1475              		.loc 1 433 3 view .LVU412
 434:lib/BTT/src/Statistics.c **** }
 1476              		.loc 1 434 1 is_stmt 0 view .LVU413
 1477 0000 90ED020B 		vldr.64	d0, [r0, #8]
 1478 0004 7047     		bx	lr
 1479              		.cfi_endproc
 1480              	.LFE352:
 1482              		.section	.text.adaptive_threshold_threshold_value,"ax",%progbits
 1483              		.align	1
 1484              		.global	adaptive_threshold_threshold_value
 1485              		.syntax unified
 1486              		.thumb
 1487              		.thumb_func
 1489              	adaptive_threshold_threshold_value:
 1490              	.LVL93:
 1491              	.LFB353:
 435:lib/BTT/src/Statistics.c **** 
 436:lib/BTT/src/Statistics.c **** /*--------------------------------------------------------------------*/
ARM GAS  /var/folders/lw/_hmdf9396f92znj902yw3qj00000gn/T//ccGkIGkl.s 			page 37


 437:lib/BTT/src/Statistics.c **** double     adaptive_threshold_threshold_value(AdaptiveThreshold* self)
 438:lib/BTT/src/Statistics.c **** {
 1492              		.loc 1 438 1 is_stmt 1 view -0
 1493              		.cfi_startproc
 1494              		@ args = 0, pretend = 0, frame = 0
 1495              		@ frame_needed = 0, uses_anonymous_args = 0
 439:lib/BTT/src/Statistics.c ****   double result = moving_average_std_dev(self->avg) * self->threshold;
 1496              		.loc 1 439 3 view .LVU415
 438:lib/BTT/src/Statistics.c ****   double result = moving_average_std_dev(self->avg) * self->threshold;
 1497              		.loc 1 438 1 is_stmt 0 view .LVU416
 1498 0000 10B5     		push	{r4, lr}
 1499              		.cfi_def_cfa_offset 8
 1500              		.cfi_offset 4, -8
 1501              		.cfi_offset 14, -4
 438:lib/BTT/src/Statistics.c ****   double result = moving_average_std_dev(self->avg) * self->threshold;
 1502              		.loc 1 438 1 view .LVU417
 1503 0002 0446     		mov	r4, r0
 1504              		.loc 1 439 19 view .LVU418
 1505 0004 006A     		ldr	r0, [r0, #32]
 1506              	.LVL94:
 1507              		.loc 1 439 19 view .LVU419
 1508 0006 FFF7FEFF 		bl	moving_average_std_dev
 1509              	.LVL95:
 1510              	.LBB36:
 1511              	.LBB37:
 190:lib/BTT/src/Statistics.c **** }
 1512              		.loc 1 190 14 view .LVU420
 1513 000a 236A     		ldr	r3, [r4, #32]
 1514              	.LBE37:
 1515              	.LBE36:
 1516              		.loc 1 439 10 view .LVU421
 1517 000c 94ED027B 		vldr.64	d7, [r4, #8]
 1518 0010 20EE070B 		vmul.f64	d0, d0, d7
 1519              	.LVL96:
 440:lib/BTT/src/Statistics.c ****   if(result < self->min)
 1520              		.loc 1 440 3 is_stmt 1 view .LVU422
 1521              		.loc 1 440 19 is_stmt 0 view .LVU423
 1522 0014 94ED047B 		vldr.64	d7, [r4, #16]
 441:lib/BTT/src/Statistics.c ****     result = self->min;
 1523              		.loc 1 441 12 view .LVU424
 1524 0018 B4EE407B 		vcmp.f64	d7, d0
 1525 001c F1EE10FA 		vmrs	APSR_nzcv, FPSCR
 1526 0020 37FE000B 		vselgt.f64	d0, d7, d0
 1527              	.LVL97:
 442:lib/BTT/src/Statistics.c ****   return result + moving_average_mean(self->avg);
 1528              		.loc 1 442 3 is_stmt 1 view .LVU425
 1529              	.LBB39:
 1530              	.LBI36:
 188:lib/BTT/src/Statistics.c **** {
 1531              		.loc 1 188 12 view .LVU426
 1532              	.LBB38:
 190:lib/BTT/src/Statistics.c **** }
 1533              		.loc 1 190 3 view .LVU427
 190:lib/BTT/src/Statistics.c **** }
 1534              		.loc 1 190 3 is_stmt 0 view .LVU428
 1535              	.LBE38:
 1536              	.LBE39:
ARM GAS  /var/folders/lw/_hmdf9396f92znj902yw3qj00000gn/T//ccGkIGkl.s 			page 38


 1537              		.loc 1 442 17 view .LVU429
 1538 0024 93ED027B 		vldr.64	d7, [r3, #8]
 443:lib/BTT/src/Statistics.c **** }
 1539              		.loc 1 443 1 view .LVU430
 1540 0028 30EE070B 		vadd.f64	d0, d0, d7
 1541              	.LVL98:
 1542              		.loc 1 443 1 view .LVU431
 1543 002c 10BD     		pop	{r4, pc}
 1544              		.loc 1 443 1 view .LVU432
 1545              		.cfi_endproc
 1546              	.LFE353:
 1548              		.section	.text.adaptive_threshold_set_threshold,"ax",%progbits
 1549              		.align	1
 1550              		.global	adaptive_threshold_set_threshold
 1551              		.syntax unified
 1552              		.thumb
 1553              		.thumb_func
 1555              	adaptive_threshold_set_threshold:
 1556              	.LVL99:
 1557              	.LFB354:
 444:lib/BTT/src/Statistics.c **** 
 445:lib/BTT/src/Statistics.c **** /*--------------------------------------------------------------------*/
 446:lib/BTT/src/Statistics.c **** void adaptive_threshold_set_threshold(AdaptiveThreshold* self, double     std_devs)
 447:lib/BTT/src/Statistics.c **** {
 1558              		.loc 1 447 1 is_stmt 1 view -0
 1559              		.cfi_startproc
 1560              		@ args = 0, pretend = 0, frame = 0
 1561              		@ frame_needed = 0, uses_anonymous_args = 0
 1562              		@ link register save eliminated.
 448:lib/BTT/src/Statistics.c ****   //if(std_devs < 0) std_devs = 0;
 449:lib/BTT/src/Statistics.c ****   self->threshold = std_devs;
 1563              		.loc 1 449 3 view .LVU434
 1564              		.loc 1 449 19 is_stmt 0 view .LVU435
 1565 0000 80ED020B 		vstr.64	d0, [r0, #8]
 450:lib/BTT/src/Statistics.c **** }
 1566              		.loc 1 450 1 view .LVU436
 1567 0004 7047     		bx	lr
 1568              		.cfi_endproc
 1569              	.LFE354:
 1571              		.section	.text.adaptive_threshold_threshold_min,"ax",%progbits
 1572              		.align	1
 1573              		.global	adaptive_threshold_threshold_min
 1574              		.syntax unified
 1575              		.thumb
 1576              		.thumb_func
 1578              	adaptive_threshold_threshold_min:
 1579              	.LVL100:
 1580              	.LFB355:
 451:lib/BTT/src/Statistics.c **** 
 452:lib/BTT/src/Statistics.c **** /*--------------------------------------------------------------------*/
 453:lib/BTT/src/Statistics.c **** double             adaptive_threshold_threshold_min    (AdaptiveThreshold* self)
 454:lib/BTT/src/Statistics.c **** {
 1581              		.loc 1 454 1 is_stmt 1 view -0
 1582              		.cfi_startproc
 1583              		@ args = 0, pretend = 0, frame = 0
 1584              		@ frame_needed = 0, uses_anonymous_args = 0
 1585              		@ link register save eliminated.
ARM GAS  /var/folders/lw/_hmdf9396f92znj902yw3qj00000gn/T//ccGkIGkl.s 			page 39


 455:lib/BTT/src/Statistics.c ****   return self->min;
 1586              		.loc 1 455 3 view .LVU438
 456:lib/BTT/src/Statistics.c **** }
 1587              		.loc 1 456 1 is_stmt 0 view .LVU439
 1588 0000 90ED040B 		vldr.64	d0, [r0, #16]
 1589 0004 7047     		bx	lr
 1590              		.cfi_endproc
 1591              	.LFE355:
 1593              		.section	.text.adaptive_threshold_set_threshold_min,"ax",%progbits
 1594              		.align	1
 1595              		.global	adaptive_threshold_set_threshold_min
 1596              		.syntax unified
 1597              		.thumb
 1598              		.thumb_func
 1600              	adaptive_threshold_set_threshold_min:
 1601              	.LVL101:
 1602              	.LFB356:
 457:lib/BTT/src/Statistics.c **** /*--------------------------------------------------------------------*/
 458:lib/BTT/src/Statistics.c **** void               adaptive_threshold_set_threshold_min(AdaptiveThreshold* self, double min)
 459:lib/BTT/src/Statistics.c **** {
 1603              		.loc 1 459 1 is_stmt 1 view -0
 1604              		.cfi_startproc
 1605              		@ args = 0, pretend = 0, frame = 0
 1606              		@ frame_needed = 0, uses_anonymous_args = 0
 1607              		@ link register save eliminated.
 460:lib/BTT/src/Statistics.c ****   //if(min < 0) min = 0;
 461:lib/BTT/src/Statistics.c ****   self->min = min;
 1608              		.loc 1 461 3 view .LVU441
 1609              		.loc 1 461 13 is_stmt 0 view .LVU442
 1610 0000 80ED040B 		vstr.64	d0, [r0, #16]
 462:lib/BTT/src/Statistics.c **** }
 1611              		.loc 1 462 1 view .LVU443
 1612 0004 7047     		bx	lr
 1613              		.cfi_endproc
 1614              	.LFE356:
 1616              		.section	.text.adaptive_threshold_onset_signal,"ax",%progbits
 1617              		.align	1
 1618              		.global	adaptive_threshold_onset_signal
 1619              		.syntax unified
 1620              		.thumb
 1621              		.thumb_func
 1623              	adaptive_threshold_onset_signal:
 1624              	.LVL102:
 1625              	.LFB357:
 463:lib/BTT/src/Statistics.c **** 
 464:lib/BTT/src/Statistics.c **** /*--------------------------------------------------------------------*/
 465:lib/BTT/src/Statistics.c **** double     adaptive_threshold_onset_signal(AdaptiveThreshold* self)
 466:lib/BTT/src/Statistics.c **** {
 1626              		.loc 1 466 1 is_stmt 1 view -0
 1627              		.cfi_startproc
 1628              		@ args = 0, pretend = 0, frame = 0
 1629              		@ frame_needed = 0, uses_anonymous_args = 0
 1630              		@ link register save eliminated.
 467:lib/BTT/src/Statistics.c ****   return self->onset_signal;
 1631              		.loc 1 467 3 view .LVU445
 468:lib/BTT/src/Statistics.c **** }
 1632              		.loc 1 468 1 is_stmt 0 view .LVU446
ARM GAS  /var/folders/lw/_hmdf9396f92znj902yw3qj00000gn/T//ccGkIGkl.s 			page 40


 1633 0000 90ED060B 		vldr.64	d0, [r0, #24]
 1634 0004 7047     		bx	lr
 1635              		.cfi_endproc
 1636              	.LFE357:
 1638              		.section	.text.adaptive_threshold_mean,"ax",%progbits
 1639              		.align	1
 1640              		.global	adaptive_threshold_mean
 1641              		.syntax unified
 1642              		.thumb
 1643              		.thumb_func
 1645              	adaptive_threshold_mean:
 1646              	.LVL103:
 1647              	.LFB358:
 469:lib/BTT/src/Statistics.c **** 
 470:lib/BTT/src/Statistics.c **** /*--------------------------------------------------------------------*/
 471:lib/BTT/src/Statistics.c **** double             adaptive_threshold_mean          (AdaptiveThreshold* self)
 472:lib/BTT/src/Statistics.c **** {
 1648              		.loc 1 472 1 is_stmt 1 view -0
 1649              		.cfi_startproc
 1650              		@ args = 0, pretend = 0, frame = 0
 1651              		@ frame_needed = 0, uses_anonymous_args = 0
 1652              		@ link register save eliminated.
 473:lib/BTT/src/Statistics.c ****   return moving_average_mean(self->avg);
 1653              		.loc 1 473 3 view .LVU448
 1654              	.LBB40:
 1655              	.LBI40:
 188:lib/BTT/src/Statistics.c **** {
 1656              		.loc 1 188 12 view .LVU449
 1657              	.LBB41:
 190:lib/BTT/src/Statistics.c **** }
 1658              		.loc 1 190 3 view .LVU450
 190:lib/BTT/src/Statistics.c **** }
 1659              		.loc 1 190 14 is_stmt 0 view .LVU451
 1660 0000 036A     		ldr	r3, [r0, #32]
 1661              	.LBE41:
 1662              	.LBE40:
 474:lib/BTT/src/Statistics.c **** }
 1663              		.loc 1 474 1 view .LVU452
 1664 0002 93ED020B 		vldr.64	d0, [r3, #8]
 1665 0006 7047     		bx	lr
 1666              		.cfi_endproc
 1667              	.LFE358:
 1669              		.section	.text.adaptive_threshold_update,"ax",%progbits
 1670              		.align	1
 1671              		.global	adaptive_threshold_update
 1672              		.syntax unified
 1673              		.thumb
 1674              		.thumb_func
 1676              	adaptive_threshold_update:
 1677              	.LVL104:
 1678              	.LFB359:
 475:lib/BTT/src/Statistics.c **** 
 476:lib/BTT/src/Statistics.c **** /*--------------------------------------------------------------------*/
 477:lib/BTT/src/Statistics.c **** double     adaptive_threshold_update(AdaptiveThreshold* self, double     x)
 478:lib/BTT/src/Statistics.c **** {
 1679              		.loc 1 478 1 is_stmt 1 view -0
 1680              		.cfi_startproc
ARM GAS  /var/folders/lw/_hmdf9396f92znj902yw3qj00000gn/T//ccGkIGkl.s 			page 41


 1681              		@ args = 0, pretend = 0, frame = 0
 1682              		@ frame_needed = 0, uses_anonymous_args = 0
 479:lib/BTT/src/Statistics.c ****   double     next   = 0;
 1683              		.loc 1 479 3 view .LVU454
 480:lib/BTT/src/Statistics.c ****   double     result = 0;
 1684              		.loc 1 480 3 view .LVU455
 481:lib/BTT/src/Statistics.c **** 
 482:lib/BTT/src/Statistics.c ****   self->filtered_x = (x * (1-self->smoothing)) + (self->filtered_x * self->smoothing);
 1685              		.loc 1 482 3 view .LVU456
 1686              		.loc 1 482 34 is_stmt 0 view .LVU457
 1687 0000 90ED007B 		vldr.64	d7, [r0]
 478:lib/BTT/src/Statistics.c ****   double     next   = 0;
 1688              		.loc 1 478 1 view .LVU458
 1689 0004 10B5     		push	{r4, lr}
 1690              		.cfi_def_cfa_offset 8
 1691              		.cfi_offset 4, -8
 1692              		.cfi_offset 14, -4
 1693 0006 2DED048B 		vpush.64	{d8, d9}
 1694              		.cfi_def_cfa_offset 24
 1695              		.cfi_offset 80, -24
 1696              		.cfi_offset 81, -20
 1697              		.cfi_offset 82, -16
 1698              		.cfi_offset 83, -12
 478:lib/BTT/src/Statistics.c ****   double     next   = 0;
 1699              		.loc 1 478 1 view .LVU459
 1700 000a B0EE409B 		vmov.f64	d9, d0
 1701 000e 0446     		mov	r4, r0
 1702              		.loc 1 482 29 view .LVU460
 1703 0010 B7EE008B 		vmov.f64	d8, #1.0e+0
 1704              		.loc 1 482 68 view .LVU461
 1705 0014 90ED0A0B 		vldr.64	d0, [r0, #40]
 1706              	.LVL105:
 1707              		.loc 1 482 29 view .LVU462
 1708 0018 38EE476B 		vsub.f64	d6, d8, d7
 1709              		.loc 1 482 68 view .LVU463
 1710 001c 27EE000B 		vmul.f64	d0, d7, d0
 1711              		.loc 1 482 48 view .LVU464
 1712 0020 A6EE090B 		vfma.f64	d0, d6, d9
 1713              		.loc 1 482 20 view .LVU465
 1714 0024 80ED0A0B 		vstr.64	d0, [r0, #40]
 483:lib/BTT/src/Statistics.c ****   moving_average_update(self->avg, self->filtered_x);
 1715              		.loc 1 483 3 is_stmt 1 view .LVU466
 1716 0028 006A     		ldr	r0, [r0, #32]
 1717              	.LVL106:
 1718              		.loc 1 483 3 is_stmt 0 view .LVU467
 1719 002a FFF7FEFF 		bl	moving_average_update
 1720              	.LVL107:
 484:lib/BTT/src/Statistics.c **** 
 485:lib/BTT/src/Statistics.c ****   double thresh = moving_average_std_dev(self->avg) * self->threshold;
 1721              		.loc 1 485 3 is_stmt 1 view .LVU468
 1722              		.loc 1 485 19 is_stmt 0 view .LVU469
 1723 002e 206A     		ldr	r0, [r4, #32]
 1724 0030 FFF7FEFF 		bl	moving_average_std_dev
 1725              	.LVL108:
 486:lib/BTT/src/Statistics.c ****   if(thresh < self->min) thresh = self->min;
 487:lib/BTT/src/Statistics.c **** 
 488:lib/BTT/src/Statistics.c ****   if((fabs(x) - moving_average_mean(self->avg)) > thresh)
ARM GAS  /var/folders/lw/_hmdf9396f92znj902yw3qj00000gn/T//ccGkIGkl.s 			page 42


 1726              		.loc 1 488 17 view .LVU470
 1727 0034 236A     		ldr	r3, [r4, #32]
 485:lib/BTT/src/Statistics.c ****   if(thresh < self->min) thresh = self->min;
 1728              		.loc 1 485 10 view .LVU471
 1729 0036 94ED027B 		vldr.64	d7, [r4, #8]
 486:lib/BTT/src/Statistics.c ****   if(thresh < self->min) thresh = self->min;
 1730              		.loc 1 486 19 view .LVU472
 1731 003a 94ED046B 		vldr.64	d6, [r4, #16]
 1732              	.LBB42:
 1733              	.LBB43:
 190:lib/BTT/src/Statistics.c **** }
 1734              		.loc 1 190 14 view .LVU473
 1735 003e 93ED025B 		vldr.64	d5, [r3, #8]
 1736              	.LBE43:
 1737              	.LBE42:
 485:lib/BTT/src/Statistics.c ****   if(thresh < self->min) thresh = self->min;
 1738              		.loc 1 485 10 view .LVU474
 1739 0042 20EE077B 		vmul.f64	d7, d0, d7
 1740              	.LVL109:
 486:lib/BTT/src/Statistics.c ****   if(thresh < self->min) thresh = self->min;
 1741              		.loc 1 486 3 is_stmt 1 view .LVU475
 486:lib/BTT/src/Statistics.c ****   if(thresh < self->min) thresh = self->min;
 1742              		.loc 1 486 33 is_stmt 0 view .LVU476
 1743 0046 B4EE476B 		vcmp.f64	d6, d7
 1744 004a F1EE10FA 		vmrs	APSR_nzcv, FPSCR
 1745 004e 36FE077B 		vselgt.f64	d7, d6, d7
 1746              	.LVL110:
 1747              		.loc 1 488 3 is_stmt 1 view .LVU477
 1748              	.LBB45:
 1749              	.LBI42:
 188:lib/BTT/src/Statistics.c **** {
 1750              		.loc 1 188 12 view .LVU478
 1751              	.LBB44:
 190:lib/BTT/src/Statistics.c **** }
 1752              		.loc 1 190 3 view .LVU479
 190:lib/BTT/src/Statistics.c **** }
 1753              		.loc 1 190 3 is_stmt 0 view .LVU480
 1754              	.LBE44:
 1755              	.LBE45:
 1756              		.loc 1 488 7 view .LVU481
 1757 0052 B0EEC96B 		vabs.f64	d6, d9
 1758              		.loc 1 488 15 view .LVU482
 1759 0056 36EE456B 		vsub.f64	d6, d6, d5
 1760              		.loc 1 488 5 view .LVU483
 1761 005a B4EEC76B 		vcmpe.f64	d6, d7
 1762 005e F1EE10FA 		vmrs	APSR_nzcv, FPSCR
 1763 0062 1FDD     		ble	.L106
 489:lib/BTT/src/Statistics.c ****     next = (x > moving_average_mean(self->avg)) ? 1 : -1;
 1764              		.loc 1 489 5 is_stmt 1 view .LVU484
 1765              	.LVL111:
 190:lib/BTT/src/Statistics.c **** }
 1766              		.loc 1 190 3 view .LVU485
 1767              		.loc 1 489 10 is_stmt 0 view .LVU486
 1768 0064 B4EEC59B 		vcmpe.f64	d9, d5
 1769 0068 BFEE007B 		vmov.f64	d7, #-1.0e+0
 1770              	.LVL112:
 1771              		.loc 1 489 10 view .LVU487
ARM GAS  /var/folders/lw/_hmdf9396f92znj902yw3qj00000gn/T//ccGkIGkl.s 			page 43


 1772 006c F1EE10FA 		vmrs	APSR_nzcv, FPSCR
 1773 0070 38FE077B 		vselgt.f64	d7, d8, d7
 1774              	.L96:
 1775              	.LVL113:
 490:lib/BTT/src/Statistics.c ****   
 491:lib/BTT/src/Statistics.c ****   //ignore the first few samples so we get a stable std dev
 492:lib/BTT/src/Statistics.c ****   if(moving_average_n(self->avg) > 10)
 1776              		.loc 1 492 3 is_stmt 1 view .LVU488
 1777              	.LBB46:
 1778              	.LBI46:
 182:lib/BTT/src/Statistics.c **** {
 1779              		.loc 1 182 5 view .LVU489
 1780              	.LBB47:
 184:lib/BTT/src/Statistics.c **** }
 1781              		.loc 1 184 3 view .LVU490
 1782              	.LBB48:
 1783              	.LBI48:
  66:lib/BTT/src/Statistics.c **** {
 1784              		.loc 1 66 5 view .LVU491
 1785              	.LBB49:
  68:lib/BTT/src/Statistics.c **** }
 1786              		.loc 1 68 3 view .LVU492
  68:lib/BTT/src/Statistics.c **** }
 1787              		.loc 1 68 14 is_stmt 0 view .LVU493
 1788 0074 9B6A     		ldr	r3, [r3, #40]
 1789              	.LBE49:
 1790              	.LBE48:
 1791              	.LBE47:
 1792              	.LBE46:
 1793              		.loc 1 492 5 view .LVU494
 1794 0076 1B68     		ldr	r3, [r3]
 1795 0078 0A2B     		cmp	r3, #10
 1796 007a 16DD     		ble	.L102
 493:lib/BTT/src/Statistics.c ****     if((next != 0) && (self->onset_signal != next))
 1797              		.loc 1 493 5 is_stmt 1 view .LVU495
 1798              		.loc 1 493 7 is_stmt 0 view .LVU496
 1799 007c B5EE407B 		vcmp.f64	d7, #0
 1800 0080 F1EE10FA 		vmrs	APSR_nzcv, FPSCR
 1801 0084 11D0     		beq	.L102
 1802              		.loc 1 493 20 discriminator 1 view .LVU497
 1803 0086 94ED066B 		vldr.64	d6, [r4, #24]
 494:lib/BTT/src/Statistics.c ****       result = next;
 1804              		.loc 1 494 14 discriminator 1 view .LVU498
 1805 008a 9FED090B 		vldr.64	d0, .L107
 1806              	.LVL114:
 1807              		.loc 1 494 14 discriminator 1 view .LVU499
 1808 008e B4EE476B 		vcmp.f64	d6, d7
 1809 0092 F1EE10FA 		vmrs	APSR_nzcv, FPSCR
 1810 0096 00FE070B 		vseleq.f64	d0, d0, d7
 1811              	.L98:
 1812              	.LVL115:
 495:lib/BTT/src/Statistics.c **** 
 496:lib/BTT/src/Statistics.c ****   self->onset_signal = next;
 1813              		.loc 1 496 3 is_stmt 1 view .LVU500
 497:lib/BTT/src/Statistics.c ****   
 498:lib/BTT/src/Statistics.c ****   return result;
 499:lib/BTT/src/Statistics.c **** };
ARM GAS  /var/folders/lw/_hmdf9396f92znj902yw3qj00000gn/T//ccGkIGkl.s 			page 44


 1814              		.loc 1 499 1 is_stmt 0 view .LVU501
 1815 009a BDEC048B 		vldm	sp!, {d8-d9}
 1816              		.cfi_remember_state
 1817              		.cfi_restore 82
 1818              		.cfi_restore 83
 1819              		.cfi_restore 80
 1820              		.cfi_restore 81
 1821              		.cfi_def_cfa_offset 8
 1822              	.LVL116:
 496:lib/BTT/src/Statistics.c ****   
 1823              		.loc 1 496 22 view .LVU502
 1824 009e 84ED067B 		vstr.64	d7, [r4, #24]
 498:lib/BTT/src/Statistics.c **** };
 1825              		.loc 1 498 3 is_stmt 1 view .LVU503
 1826              		.loc 1 499 1 is_stmt 0 view .LVU504
 1827 00a2 10BD     		pop	{r4, pc}
 1828              	.LVL117:
 1829              	.L106:
 1830              		.cfi_restore_state
 479:lib/BTT/src/Statistics.c ****   double     result = 0;
 1831              		.loc 1 479 14 view .LVU505
 1832 00a4 9FED027B 		vldr.64	d7, .L107
 1833              	.LVL118:
 479:lib/BTT/src/Statistics.c ****   double     result = 0;
 1834              		.loc 1 479 14 view .LVU506
 1835 00a8 E4E7     		b	.L96
 1836              	.LVL119:
 1837              	.L102:
 480:lib/BTT/src/Statistics.c **** 
 1838              		.loc 1 480 14 view .LVU507
 1839 00aa 9FED010B 		vldr.64	d0, .L107
 1840              	.LVL120:
 480:lib/BTT/src/Statistics.c **** 
 1841              		.loc 1 480 14 view .LVU508
 1842 00ae F4E7     		b	.L98
 1843              	.L108:
 1844              		.align	3
 1845              	.L107:
 1846 00b0 00000000 		.word	0
 1847 00b4 00000000 		.word	0
 1848              		.cfi_endproc
 1849              	.LFE359:
 1851              		.section	.text.statistics_random_flat,"ax",%progbits
 1852              		.align	1
 1853              		.global	statistics_random_flat
 1854              		.syntax unified
 1855              		.thumb
 1856              		.thumb_func
 1858              	statistics_random_flat:
 1859              	.LFB360:
 500:lib/BTT/src/Statistics.c **** 
 501:lib/BTT/src/Statistics.c **** 
 502:lib/BTT/src/Statistics.c **** /*--------------------------------------------------------------------*/
 503:lib/BTT/src/Statistics.c **** double     statistics_random_flat()
 504:lib/BTT/src/Statistics.c **** {
 1860              		.loc 1 504 1 is_stmt 1 view -0
 1861              		.cfi_startproc
ARM GAS  /var/folders/lw/_hmdf9396f92znj902yw3qj00000gn/T//ccGkIGkl.s 			page 45


 1862              		@ args = 0, pretend = 0, frame = 0
 1863              		@ frame_needed = 0, uses_anonymous_args = 0
 505:lib/BTT/src/Statistics.c ****   return random() / (double)RAND_MAX;
 1864              		.loc 1 505 3 view .LVU510
 504:lib/BTT/src/Statistics.c ****   return random() / (double)RAND_MAX;
 1865              		.loc 1 504 1 is_stmt 0 view .LVU511
 1866 0000 08B5     		push	{r3, lr}
 1867              		.cfi_def_cfa_offset 8
 1868              		.cfi_offset 3, -8
 1869              		.cfi_offset 14, -4
 1870              		.loc 1 505 10 view .LVU512
 1871 0002 FFF7FEFF 		bl	random
 1872              	.LVL121:
 1873              		.loc 1 505 19 view .LVU513
 1874 0006 07EE900A 		vmov	s15, r0	@ int
 506:lib/BTT/src/Statistics.c **** }
 1875              		.loc 1 506 1 view .LVU514
 1876 000a 9FED030B 		vldr.64	d0, .L110
 505:lib/BTT/src/Statistics.c ****   return random() / (double)RAND_MAX;
 1877              		.loc 1 505 19 view .LVU515
 1878 000e B8EEE77B 		vcvt.f64.s32	d7, s15
 1879              		.loc 1 506 1 view .LVU516
 1880 0012 87EE000B 		vdiv.f64	d0, d7, d0
 1881 0016 08BD     		pop	{r3, pc}
 1882              	.L111:
 1883              		.align	3
 1884              	.L110:
 1885 0018 0000C0FF 		.word	-4194304
 1886 001c FFFFDF41 		.word	1105199103
 1887              		.cfi_endproc
 1888              	.LFE360:
 1890              		.section	.text.statistics_random_normal,"ax",%progbits
 1891              		.align	1
 1892              		.global	statistics_random_normal
 1893              		.syntax unified
 1894              		.thumb
 1895              		.thumb_func
 1897              	statistics_random_normal:
 1898              	.LVL122:
 1899              	.LFB361:
 507:lib/BTT/src/Statistics.c **** 
 508:lib/BTT/src/Statistics.c **** /*--------------------------------------------------------------------*/
 509:lib/BTT/src/Statistics.c **** double     statistics_random_normal(double mean, double std_dev)
 510:lib/BTT/src/Statistics.c **** {
 1900              		.loc 1 510 1 is_stmt 1 view -0
 1901              		.cfi_startproc
 1902              		@ args = 0, pretend = 0, frame = 0
 1903              		@ frame_needed = 0, uses_anonymous_args = 0
 1904              		.loc 1 510 1 is_stmt 0 view .LVU518
 1905 0000 08B5     		push	{r3, lr}
 1906              		.cfi_def_cfa_offset 8
 1907              		.cfi_offset 3, -8
 1908              		.cfi_offset 14, -4
 1909 0002 2DED0E8B 		vpush.64	{d8, d9, d10, d11, d12, d13, d14}
 1910              		.cfi_def_cfa_offset 64
 1911              		.cfi_offset 80, -64
 1912              		.cfi_offset 81, -60
ARM GAS  /var/folders/lw/_hmdf9396f92znj902yw3qj00000gn/T//ccGkIGkl.s 			page 46


 1913              		.cfi_offset 82, -56
 1914              		.cfi_offset 83, -52
 1915              		.cfi_offset 84, -48
 1916              		.cfi_offset 85, -44
 1917              		.cfi_offset 86, -40
 1918              		.cfi_offset 87, -36
 1919              		.cfi_offset 88, -32
 1920              		.cfi_offset 89, -28
 1921              		.cfi_offset 90, -24
 1922              		.cfi_offset 91, -20
 1923              		.cfi_offset 92, -16
 1924              		.cfi_offset 93, -12
 1925              		.loc 1 510 1 view .LVU519
 1926 0006 B0EE409B 		vmov.f64	d9, d0
 1927 000a B0EE41AB 		vmov.f64	d10, d1
 511:lib/BTT/src/Statistics.c ****   double     u, v, r;
 512:lib/BTT/src/Statistics.c ****   
 513:lib/BTT/src/Statistics.c ****   do{
 514:lib/BTT/src/Statistics.c ****     u = 2 * statistics_random_flat() - 1;
 1928              		.loc 1 514 7 view .LVU520
 1929 000e B0EE00BB 		vmov.f64	d11, #2.0e+0
 1930 0012 BFEE00CB 		vmov.f64	d12, #-1.0e+0
 515:lib/BTT/src/Statistics.c ****     v = 2 * statistics_random_flat() - 1;
 516:lib/BTT/src/Statistics.c ****     r = u*u + v*v;
 517:lib/BTT/src/Statistics.c ****   }while(r == 0 || r > 1);
 1931              		.loc 1 517 17 view .LVU521
 1932 0016 B7EE00EB 		vmov.f64	d14, #1.0e+0
 1933              	.LVL123:
 1934              	.L114:
 511:lib/BTT/src/Statistics.c ****   double     u, v, r;
 1935              		.loc 1 511 3 is_stmt 1 discriminator 3 view .LVU522
 513:lib/BTT/src/Statistics.c ****     u = 2 * statistics_random_flat() - 1;
 1936              		.loc 1 513 3 discriminator 3 view .LVU523
 514:lib/BTT/src/Statistics.c ****     v = 2 * statistics_random_flat() - 1;
 1937              		.loc 1 514 5 discriminator 3 view .LVU524
 514:lib/BTT/src/Statistics.c ****     v = 2 * statistics_random_flat() - 1;
 1938              		.loc 1 514 7 is_stmt 0 discriminator 3 view .LVU525
 1939 001a B0EE4CDB 		vmov.f64	d13, d12
 514:lib/BTT/src/Statistics.c ****     v = 2 * statistics_random_flat() - 1;
 1940              		.loc 1 514 13 discriminator 3 view .LVU526
 1941 001e FFF7FEFF 		bl	statistics_random_flat
 1942              	.LVL124:
 515:lib/BTT/src/Statistics.c ****     v = 2 * statistics_random_flat() - 1;
 1943              		.loc 1 515 7 discriminator 3 view .LVU527
 1944 0022 B0EE4C8B 		vmov.f64	d8, d12
 514:lib/BTT/src/Statistics.c ****     v = 2 * statistics_random_flat() - 1;
 1945              		.loc 1 514 7 discriminator 3 view .LVU528
 1946 0026 A0EE0BDB 		vfma.f64	d13, d0, d11
 1947              	.LVL125:
 515:lib/BTT/src/Statistics.c ****     v = 2 * statistics_random_flat() - 1;
 1948              		.loc 1 515 5 is_stmt 1 discriminator 3 view .LVU529
 515:lib/BTT/src/Statistics.c ****     v = 2 * statistics_random_flat() - 1;
 1949              		.loc 1 515 13 is_stmt 0 discriminator 3 view .LVU530
 1950 002a FFF7FEFF 		bl	statistics_random_flat
 1951              	.LVL126:
 515:lib/BTT/src/Statistics.c ****     v = 2 * statistics_random_flat() - 1;
 1952              		.loc 1 515 7 discriminator 3 view .LVU531
ARM GAS  /var/folders/lw/_hmdf9396f92znj902yw3qj00000gn/T//ccGkIGkl.s 			page 47


 1953 002e A0EE0B8B 		vfma.f64	d8, d0, d11
 1954              	.LVL127:
 516:lib/BTT/src/Statistics.c ****   }while(r == 0 || r > 1);
 1955              		.loc 1 516 5 is_stmt 1 discriminator 3 view .LVU532
 516:lib/BTT/src/Statistics.c ****   }while(r == 0 || r > 1);
 1956              		.loc 1 516 16 is_stmt 0 discriminator 3 view .LVU533
 1957 0032 28EE088B 		vmul.f64	d8, d8, d8
 1958              	.LVL128:
 516:lib/BTT/src/Statistics.c ****   }while(r == 0 || r > 1);
 1959              		.loc 1 516 7 discriminator 3 view .LVU534
 1960 0036 ADEE0D8B 		vfma.f64	d8, d13, d13
 1961              	.LVL129:
 1962              		.loc 1 517 9 is_stmt 1 discriminator 3 view .LVU535
 1963              		.loc 1 517 3 is_stmt 0 discriminator 3 view .LVU536
 1964 003a B5EE408B 		vcmp.f64	d8, #0
 1965 003e F1EE10FA 		vmrs	APSR_nzcv, FPSCR
 1966 0042 EAD0     		beq	.L114
 1967              		.loc 1 517 17 discriminator 2 view .LVU537
 1968 0044 B4EECE8B 		vcmpe.f64	d8, d14
 1969 0048 F1EE10FA 		vmrs	APSR_nzcv, FPSCR
 1970 004c E5DC     		bgt	.L114
 518:lib/BTT/src/Statistics.c **** 
 519:lib/BTT/src/Statistics.c ****   double     c = sqrt(-2 * log(r) / r);
 1971              		.loc 1 519 3 is_stmt 1 view .LVU538
 1972              		.loc 1 519 28 is_stmt 0 view .LVU539
 1973 004e B0EE480B 		vmov.f64	d0, d8
 1974              	.LVL130:
 1975              		.loc 1 519 28 view .LVU540
 1976 0052 FFF7FEFF 		bl	log
 1977              	.LVL131:
 1978              		.loc 1 519 26 view .LVU541
 1979 0056 B8EE007B 		vmov.f64	d7, #-2.0e+0
 1980 005a 20EE070B 		vmul.f64	d0, d0, d7
 1981              		.loc 1 519 18 view .LVU542
 1982 005e 80EE080B 		vdiv.f64	d0, d0, d8
 1983 0062 FFF7FEFF 		bl	sqrt
 1984              	.LVL132:
 520:lib/BTT/src/Statistics.c ****   return mean + u * c * std_dev;
 1985              		.loc 1 520 3 is_stmt 1 view .LVU543
 1986              		.loc 1 520 19 is_stmt 0 view .LVU544
 1987 0066 2DEE000B 		vmul.f64	d0, d13, d0
 1988              	.LVL133:
 521:lib/BTT/src/Statistics.c **** }
 1989              		.loc 1 521 1 view .LVU545
 1990 006a A0EE0A9B 		vfma.f64	d9, d0, d10
 1991              	.LVL134:
 1992              		.loc 1 521 1 view .LVU546
 1993 006e B0EE490B 		vmov.f64	d0, d9
 1994 0072 BDEC0E8B 		vldm	sp!, {d8-d14}
 1995              		.cfi_restore 92
 1996              		.cfi_restore 93
 1997              		.cfi_restore 90
 1998              		.cfi_restore 91
 1999              		.cfi_restore 88
 2000              		.cfi_restore 89
 2001              		.cfi_restore 86
 2002              		.cfi_restore 87
ARM GAS  /var/folders/lw/_hmdf9396f92znj902yw3qj00000gn/T//ccGkIGkl.s 			page 48


 2003              		.cfi_restore 84
 2004              		.cfi_restore 85
 2005              		.cfi_restore 82
 2006              		.cfi_restore 83
 2007              		.cfi_restore 80
 2008              		.cfi_restore 81
 2009              		.cfi_def_cfa_offset 8
 2010              	.LVL135:
 2011              		.loc 1 521 1 view .LVU547
 2012 0076 08BD     		pop	{r3, pc}
 2013              		.cfi_endproc
 2014              	.LFE361:
 2016              		.section	.text.statistics_random_cauchy,"ax",%progbits
 2017              		.align	1
 2018              		.global	statistics_random_cauchy
 2019              		.syntax unified
 2020              		.thumb
 2021              		.thumb_func
 2023              	statistics_random_cauchy:
 2024              	.LVL136:
 2025              	.LFB362:
 522:lib/BTT/src/Statistics.c **** 
 523:lib/BTT/src/Statistics.c **** /*--------------------------------------------------------------------*/
 524:lib/BTT/src/Statistics.c **** double     statistics_random_cauchy(double peak_location, double half_width_at_half_maximum)
 525:lib/BTT/src/Statistics.c **** {
 2026              		.loc 1 525 1 is_stmt 1 view -0
 2027              		.cfi_startproc
 2028              		@ args = 0, pretend = 0, frame = 0
 2029              		@ frame_needed = 0, uses_anonymous_args = 0
 526:lib/BTT/src/Statistics.c ****   double result = statistics_random_flat();
 2030              		.loc 1 526 3 view .LVU549
 525:lib/BTT/src/Statistics.c ****   double result = statistics_random_flat();
 2031              		.loc 1 525 1 is_stmt 0 view .LVU550
 2032 0000 08B5     		push	{r3, lr}
 2033              		.cfi_def_cfa_offset 8
 2034              		.cfi_offset 3, -8
 2035              		.cfi_offset 14, -4
 2036 0002 2DED048B 		vpush.64	{d8, d9}
 2037              		.cfi_def_cfa_offset 24
 2038              		.cfi_offset 80, -24
 2039              		.cfi_offset 81, -20
 2040              		.cfi_offset 82, -16
 2041              		.cfi_offset 83, -12
 525:lib/BTT/src/Statistics.c ****   double result = statistics_random_flat();
 2042              		.loc 1 525 1 view .LVU551
 2043 0006 B0EE419B 		vmov.f64	d9, d1
 2044 000a B0EE408B 		vmov.f64	d8, d0
 2045              		.loc 1 526 19 view .LVU552
 2046 000e FFF7FEFF 		bl	statistics_random_flat
 2047              	.LVL137:
 527:lib/BTT/src/Statistics.c ****   result -= 0.5;
 2048              		.loc 1 527 3 is_stmt 1 view .LVU553
 2049              		.loc 1 527 10 is_stmt 0 view .LVU554
 2050 0012 B6EE007B 		vmov.f64	d7, #5.0e-1
 2051 0016 30EE470B 		vsub.f64	d0, d0, d7
 2052              	.LVL138:
 528:lib/BTT/src/Statistics.c ****   result *= M_PI;
ARM GAS  /var/folders/lw/_hmdf9396f92znj902yw3qj00000gn/T//ccGkIGkl.s 			page 49


 2053              		.loc 1 528 3 is_stmt 1 view .LVU555
 529:lib/BTT/src/Statistics.c ****   //if(fabs(result) == M_PI)
 530:lib/BTT/src/Statistics.c ****     //result = 0;
 531:lib/BTT/src/Statistics.c ****   //else
 532:lib/BTT/src/Statistics.c ****     result = tan(result);
 2054              		.loc 1 532 5 view .LVU556
 2055              		.loc 1 532 14 is_stmt 0 view .LVU557
 2056 001a 9FED077B 		vldr.64	d7, .L116
 2057 001e 20EE070B 		vmul.f64	d0, d0, d7
 2058              	.LVL139:
 2059              		.loc 1 532 14 view .LVU558
 2060 0022 FFF7FEFF 		bl	tan
 2061              	.LVL140:
 533:lib/BTT/src/Statistics.c ****   
 534:lib/BTT/src/Statistics.c ****   result *= half_width_at_half_maximum;
 2062              		.loc 1 534 3 is_stmt 1 view .LVU559
 535:lib/BTT/src/Statistics.c ****   result += peak_location;
 2063              		.loc 1 535 3 view .LVU560
 536:lib/BTT/src/Statistics.c ****   return result;
 2064              		.loc 1 536 3 view .LVU561
 537:lib/BTT/src/Statistics.c **** }
 2065              		.loc 1 537 1 is_stmt 0 view .LVU562
 2066 0026 A0EE098B 		vfma.f64	d8, d0, d9
 2067              	.LVL141:
 2068              		.loc 1 537 1 view .LVU563
 2069 002a B0EE480B 		vmov.f64	d0, d8
 2070 002e BDEC048B 		vldm	sp!, {d8-d9}
 2071              		.cfi_restore 82
 2072              		.cfi_restore 83
 2073              		.cfi_restore 80
 2074              		.cfi_restore 81
 2075              		.cfi_def_cfa_offset 8
 2076              	.LVL142:
 2077              		.loc 1 537 1 view .LVU564
 2078 0032 08BD     		pop	{r3, pc}
 2079              	.L117:
 2080 0034 AFF30080 		.align	3
 2081              	.L116:
 2082 0038 182D4454 		.word	1413754136
 2083 003c FB210940 		.word	1074340347
 2084              		.cfi_endproc
 2085              	.LFE362:
 2087              		.text
 2088              	.Letext0:
 2089              		.file 2 "lib/BTT/src/Statistics.h"
 2090              		.file 3 "/Library/DaisyToolchain/0.2.0/arm/arm-none-eabi/include/math.h"
 2091              		.file 4 "/Library/DaisyToolchain/0.2.0/arm/arm-none-eabi/include/stdlib.h"
ARM GAS  /var/folders/lw/_hmdf9396f92znj902yw3qj00000gn/T//ccGkIGkl.s 			page 50

