ARM GAS  /var/folders/lw/_hmdf9396f92znj902yw3qj00000gn/T//ccOGyVsP.s 			page 1


   1              		.cpu cortex-m7
   2              		.arch armv7e-m
   3              		.fpu fpv5-d16
   4              		.eabi_attribute 28, 1
   5              		.eabi_attribute 20, 1
   6              		.eabi_attribute 21, 1
   7              		.eabi_attribute 23, 3
   8              		.eabi_attribute 24, 1
   9              		.eabi_attribute 25, 1
  10              		.eabi_attribute 26, 1
  11              		.eabi_attribute 30, 4
  12              		.eabi_attribute 34, 1
  13              		.eabi_attribute 18, 4
  14              		.file	"STFT.c"
  15              		.text
  16              	.Ltext0:
  17              		.cfi_sections	.debug_frame
  18              		.section	.text.stft_destroy,"ax",%progbits
  19              		.align	1
  20              		.global	stft_destroy
  21              		.syntax unified
  22              		.thumb
  23              		.thumb_func
  25              	stft_destroy:
  26              	.LVL0:
  27              	.LFB321:
  28              		.file 1 "lib/BTT/src/STFT.c"
   1:lib/BTT/src/STFT.c **** #include "STFT.h"
   2:lib/BTT/src/STFT.c **** 
   3:lib/BTT/src/STFT.c **** #include <stdlib.h> //calloc
   4:lib/BTT/src/STFT.c **** 
   5:lib/BTT/src/STFT.c **** /*--------------------------------------------------------------------*/
   6:lib/BTT/src/STFT.c **** struct Opaque_STFT_Struct
   7:lib/BTT/src/STFT.c **** {
   8:lib/BTT/src/STFT.c ****   int           should_resynthesize;
   9:lib/BTT/src/STFT.c ****   int           window_size;
  10:lib/BTT/src/STFT.c ****   int           fft_N;
  11:lib/BTT/src/STFT.c ****   int           overlap;
  12:lib/BTT/src/STFT.c ****   int           hop_size;
  13:lib/BTT/src/STFT.c ****   int           sample_counter;
  14:lib/BTT/src/STFT.c ****   int           input_index;
  15:lib/BTT/src/STFT.c ****   int           output_index;;
  16:lib/BTT/src/STFT.c ****   dft_sample_t* window;
  17:lib/BTT/src/STFT.c ****   dft_sample_t* running_input;
  18:lib/BTT/src/STFT.c ****   dft_sample_t* running_output;
  19:lib/BTT/src/STFT.c ****   dft_sample_t* real;
  20:lib/BTT/src/STFT.c **** };
  21:lib/BTT/src/STFT.c **** 
  22:lib/BTT/src/STFT.c **** /*--------------------------------------------------------------------*/
  23:lib/BTT/src/STFT.c **** STFT* stft_new(int window_size /*power of 2 please*/, int overlap /* 1, 2, 4, 8 */, int should_resy
  24:lib/BTT/src/STFT.c **** {
  25:lib/BTT/src/STFT.c ****   STFT* self = calloc(1, sizeof(*self));
  26:lib/BTT/src/STFT.c ****   if(self != NULL)
  27:lib/BTT/src/STFT.c ****     {
  28:lib/BTT/src/STFT.c ****       self->should_resynthesize  = should_resynthesize;
  29:lib/BTT/src/STFT.c ****       self->window_size          = window_size;
  30:lib/BTT/src/STFT.c ****       self->fft_N                = (should_resynthesize) ? overlap * window_size : window_size;
ARM GAS  /var/folders/lw/_hmdf9396f92znj902yw3qj00000gn/T//ccOGyVsP.s 			page 2


  31:lib/BTT/src/STFT.c ****       self->overlap              = overlap;
  32:lib/BTT/src/STFT.c ****       self->hop_size             = window_size / overlap;
  33:lib/BTT/src/STFT.c ****       self->sample_counter       = 0;
  34:lib/BTT/src/STFT.c ****       self->input_index          = 0;
  35:lib/BTT/src/STFT.c ****       self->output_index         = 0;
  36:lib/BTT/src/STFT.c ****       self->window               = calloc(self->window_size, sizeof(*(self->window)));
  37:lib/BTT/src/STFT.c ****       self->running_input        = calloc(self->window_size, sizeof(*(self->running_input)));
  38:lib/BTT/src/STFT.c ****       self->running_output       = calloc(self->fft_N      , sizeof(*(self->running_output)));
  39:lib/BTT/src/STFT.c ****       self->real                 = calloc(self->fft_N      , sizeof(*(self->real)));
  40:lib/BTT/src/STFT.c ****       if(self->window           == NULL) return stft_destroy(self);
  41:lib/BTT/src/STFT.c ****       if(self->running_input    == NULL) return stft_destroy(self);
  42:lib/BTT/src/STFT.c ****       if(self->running_output   == NULL) return stft_destroy(self);
  43:lib/BTT/src/STFT.c ****       if(self->real             == NULL) return stft_destroy(self);
  44:lib/BTT/src/STFT.c ****   
  45:lib/BTT/src/STFT.c ****       //no choice for now
  46:lib/BTT/src/STFT.c ****       dft_init_blackman_window(self->window, self->window_size);
  47:lib/BTT/src/STFT.c ****   }
  48:lib/BTT/src/STFT.c ****   return self;
  49:lib/BTT/src/STFT.c **** }
  50:lib/BTT/src/STFT.c **** 
  51:lib/BTT/src/STFT.c **** /*--------------------------------------------------------------------*/
  52:lib/BTT/src/STFT.c **** STFT* stft_destroy(STFT* self)
  53:lib/BTT/src/STFT.c **** {
  29              		.loc 1 53 1 view -0
  30              		.cfi_startproc
  31              		@ args = 0, pretend = 0, frame = 0
  32              		@ frame_needed = 0, uses_anonymous_args = 0
  54:lib/BTT/src/STFT.c ****   if(self != NULL)
  33              		.loc 1 54 3 view .LVU1
  53:lib/BTT/src/STFT.c ****   if(self != NULL)
  34              		.loc 1 53 1 is_stmt 0 view .LVU2
  35 0000 10B5     		push	{r4, lr}
  36              		.cfi_def_cfa_offset 8
  37              		.cfi_offset 4, -8
  38              		.cfi_offset 14, -4
  39              		.loc 1 54 5 view .LVU3
  40 0002 0446     		mov	r4, r0
  41 0004 90B1     		cbz	r0, .L2
  55:lib/BTT/src/STFT.c ****     {
  56:lib/BTT/src/STFT.c ****       if(self->window != NULL)
  42              		.loc 1 56 7 is_stmt 1 view .LVU4
  43              		.loc 1 56 14 is_stmt 0 view .LVU5
  44 0006 006A     		ldr	r0, [r0, #32]
  45              	.LVL1:
  46              		.loc 1 56 9 view .LVU6
  47 0008 08B1     		cbz	r0, .L3
  57:lib/BTT/src/STFT.c ****         free(self->window);
  48              		.loc 1 57 9 is_stmt 1 view .LVU7
  49 000a FFF7FEFF 		bl	free
  50              	.LVL2:
  51              	.L3:
  58:lib/BTT/src/STFT.c ****       if(self->running_input != NULL)
  52              		.loc 1 58 7 view .LVU8
  53              		.loc 1 58 14 is_stmt 0 view .LVU9
  54 000e 606A     		ldr	r0, [r4, #36]
  55              		.loc 1 58 9 view .LVU10
  56 0010 08B1     		cbz	r0, .L4
ARM GAS  /var/folders/lw/_hmdf9396f92znj902yw3qj00000gn/T//ccOGyVsP.s 			page 3


  59:lib/BTT/src/STFT.c ****         free(self->running_input);
  57              		.loc 1 59 9 is_stmt 1 view .LVU11
  58 0012 FFF7FEFF 		bl	free
  59              	.LVL3:
  60              	.L4:
  60:lib/BTT/src/STFT.c ****       if(self->running_output != NULL)
  61              		.loc 1 60 7 view .LVU12
  62              		.loc 1 60 14 is_stmt 0 view .LVU13
  63 0016 A06A     		ldr	r0, [r4, #40]
  64              		.loc 1 60 9 view .LVU14
  65 0018 08B1     		cbz	r0, .L5
  61:lib/BTT/src/STFT.c ****         free(self->running_output);
  66              		.loc 1 61 9 is_stmt 1 view .LVU15
  67 001a FFF7FEFF 		bl	free
  68              	.LVL4:
  69              	.L5:
  62:lib/BTT/src/STFT.c ****       if(self->real != NULL)
  70              		.loc 1 62 7 view .LVU16
  71              		.loc 1 62 14 is_stmt 0 view .LVU17
  72 001e E06A     		ldr	r0, [r4, #44]
  73              		.loc 1 62 9 view .LVU18
  74 0020 08B1     		cbz	r0, .L6
  63:lib/BTT/src/STFT.c ****         free(self->real);
  75              		.loc 1 63 9 is_stmt 1 view .LVU19
  76 0022 FFF7FEFF 		bl	free
  77              	.LVL5:
  78              	.L6:
  64:lib/BTT/src/STFT.c ****     
  65:lib/BTT/src/STFT.c ****       free(self);
  79              		.loc 1 65 7 view .LVU20
  80 0026 2046     		mov	r0, r4
  81 0028 FFF7FEFF 		bl	free
  82              	.LVL6:
  83              	.L2:
  66:lib/BTT/src/STFT.c ****     }
  67:lib/BTT/src/STFT.c ****   return (STFT*) NULL;
  84              		.loc 1 67 3 view .LVU21
  68:lib/BTT/src/STFT.c **** }
  85              		.loc 1 68 1 is_stmt 0 view .LVU22
  86 002c 0020     		movs	r0, #0
  87 002e 10BD     		pop	{r4, pc}
  88              		.loc 1 68 1 view .LVU23
  89              		.cfi_endproc
  90              	.LFE321:
  92              		.section	.text.stft_new,"ax",%progbits
  93              		.align	1
  94              		.global	stft_new
  95              		.syntax unified
  96              		.thumb
  97              		.thumb_func
  99              	stft_new:
 100              	.LVL7:
 101              	.LFB320:
  24:lib/BTT/src/STFT.c ****   STFT* self = calloc(1, sizeof(*self));
 102              		.loc 1 24 1 is_stmt 1 view -0
 103              		.cfi_startproc
 104              		@ args = 0, pretend = 0, frame = 0
ARM GAS  /var/folders/lw/_hmdf9396f92znj902yw3qj00000gn/T//ccOGyVsP.s 			page 4


 105              		@ frame_needed = 0, uses_anonymous_args = 0
  25:lib/BTT/src/STFT.c ****   if(self != NULL)
 106              		.loc 1 25 3 view .LVU25
  24:lib/BTT/src/STFT.c ****   STFT* self = calloc(1, sizeof(*self));
 107              		.loc 1 24 1 is_stmt 0 view .LVU26
 108 0000 2DE9F843 		push	{r3, r4, r5, r6, r7, r8, r9, lr}
 109              		.cfi_def_cfa_offset 32
 110              		.cfi_offset 3, -32
 111              		.cfi_offset 4, -28
 112              		.cfi_offset 5, -24
 113              		.cfi_offset 6, -20
 114              		.cfi_offset 7, -16
 115              		.cfi_offset 8, -12
 116              		.cfi_offset 9, -8
 117              		.cfi_offset 14, -4
  24:lib/BTT/src/STFT.c ****   STFT* self = calloc(1, sizeof(*self));
 118              		.loc 1 24 1 view .LVU27
 119 0004 0546     		mov	r5, r0
 120 0006 0E46     		mov	r6, r1
  25:lib/BTT/src/STFT.c ****   if(self != NULL)
 121              		.loc 1 25 16 view .LVU28
 122 0008 0120     		movs	r0, #1
 123              	.LVL8:
  25:lib/BTT/src/STFT.c ****   if(self != NULL)
 124              		.loc 1 25 16 view .LVU29
 125 000a 3021     		movs	r1, #48
 126              	.LVL9:
  24:lib/BTT/src/STFT.c ****   STFT* self = calloc(1, sizeof(*self));
 127              		.loc 1 24 1 view .LVU30
 128 000c 1746     		mov	r7, r2
  25:lib/BTT/src/STFT.c ****   if(self != NULL)
 129              		.loc 1 25 16 view .LVU31
 130 000e FFF7FEFF 		bl	calloc
 131              	.LVL10:
  26:lib/BTT/src/STFT.c ****     {
 132              		.loc 1 26 3 is_stmt 1 view .LVU32
  26:lib/BTT/src/STFT.c ****     {
 133              		.loc 1 26 5 is_stmt 0 view .LVU33
 134 0012 0446     		mov	r4, r0
 135 0014 0028     		cmp	r0, #0
 136 0016 37D0     		beq	.L22
  28:lib/BTT/src/STFT.c ****       self->window_size          = window_size;
 137              		.loc 1 28 7 is_stmt 1 view .LVU34
  29:lib/BTT/src/STFT.c ****       self->fft_N                = (should_resynthesize) ? overlap * window_size : window_size;
 138              		.loc 1 29 34 is_stmt 0 view .LVU35
 139 0018 C0E90075 		strd	r7, r5, [r0]
  30:lib/BTT/src/STFT.c ****       self->overlap              = overlap;
 140              		.loc 1 30 7 is_stmt 1 view .LVU36
  30:lib/BTT/src/STFT.c ****       self->overlap              = overlap;
 141              		.loc 1 30 82 is_stmt 0 view .LVU37
 142 001c 3FB3     		cbz	r7, .L29
  30:lib/BTT/src/STFT.c ****       self->overlap              = overlap;
 143              		.loc 1 30 82 discriminator 1 view .LVU38
 144 001e 06FB05F9 		mul	r9, r6, r5
 145              	.L24:
  33:lib/BTT/src/STFT.c ****       self->input_index          = 0;
 146              		.loc 1 33 34 discriminator 4 view .LVU39
ARM GAS  /var/folders/lw/_hmdf9396f92znj902yw3qj00000gn/T//ccOGyVsP.s 			page 5


 147 0022 0023     		movs	r3, #0
  36:lib/BTT/src/STFT.c ****       self->running_input        = calloc(self->window_size, sizeof(*(self->running_input)));
 148              		.loc 1 36 36 discriminator 4 view .LVU40
 149 0024 0421     		movs	r1, #4
 150 0026 2846     		mov	r0, r5
 151              	.LVL11:
  35:lib/BTT/src/STFT.c ****       self->window               = calloc(self->window_size, sizeof(*(self->window)));
 152              		.loc 1 35 34 discriminator 4 view .LVU41
 153 0028 E361     		str	r3, [r4, #28]
  31:lib/BTT/src/STFT.c ****       self->hop_size             = window_size / overlap;
 154              		.loc 1 31 34 discriminator 4 view .LVU42
 155 002a C4E90296 		strd	r9, r6, [r4, #8]
  32:lib/BTT/src/STFT.c ****       self->sample_counter       = 0;
 156              		.loc 1 32 7 is_stmt 1 discriminator 4 view .LVU43
  32:lib/BTT/src/STFT.c ****       self->sample_counter       = 0;
 157              		.loc 1 32 48 is_stmt 0 discriminator 4 view .LVU44
 158 002e 95FBF6F6 		sdiv	r6, r5, r6
 159              	.LVL12:
  34:lib/BTT/src/STFT.c ****       self->output_index         = 0;
 160              		.loc 1 34 34 discriminator 4 view .LVU45
 161 0032 C4E90533 		strd	r3, r3, [r4, #20]
  32:lib/BTT/src/STFT.c ****       self->sample_counter       = 0;
 162              		.loc 1 32 34 discriminator 4 view .LVU46
 163 0036 2661     		str	r6, [r4, #16]
  33:lib/BTT/src/STFT.c ****       self->input_index          = 0;
 164              		.loc 1 33 7 is_stmt 1 discriminator 4 view .LVU47
  35:lib/BTT/src/STFT.c ****       self->window               = calloc(self->window_size, sizeof(*(self->window)));
 165              		.loc 1 35 7 discriminator 4 view .LVU48
  36:lib/BTT/src/STFT.c ****       self->running_input        = calloc(self->window_size, sizeof(*(self->running_input)));
 166              		.loc 1 36 7 discriminator 4 view .LVU49
  36:lib/BTT/src/STFT.c ****       self->running_input        = calloc(self->window_size, sizeof(*(self->running_input)));
 167              		.loc 1 36 36 is_stmt 0 discriminator 4 view .LVU50
 168 0038 FFF7FEFF 		bl	calloc
 169              	.LVL13:
  37:lib/BTT/src/STFT.c ****       self->running_output       = calloc(self->fft_N      , sizeof(*(self->running_output)));
 170              		.loc 1 37 36 discriminator 4 view .LVU51
 171 003c 0421     		movs	r1, #4
  36:lib/BTT/src/STFT.c ****       self->running_input        = calloc(self->window_size, sizeof(*(self->running_input)));
 172              		.loc 1 36 34 discriminator 4 view .LVU52
 173 003e 2062     		str	r0, [r4, #32]
  37:lib/BTT/src/STFT.c ****       self->running_output       = calloc(self->fft_N      , sizeof(*(self->running_output)));
 174              		.loc 1 37 7 is_stmt 1 discriminator 4 view .LVU53
  36:lib/BTT/src/STFT.c ****       self->running_input        = calloc(self->window_size, sizeof(*(self->running_input)));
 175              		.loc 1 36 36 is_stmt 0 discriminator 4 view .LVU54
 176 0040 0646     		mov	r6, r0
  37:lib/BTT/src/STFT.c ****       self->running_output       = calloc(self->fft_N      , sizeof(*(self->running_output)));
 177              		.loc 1 37 36 discriminator 4 view .LVU55
 178 0042 2846     		mov	r0, r5
 179 0044 FFF7FEFF 		bl	calloc
 180              	.LVL14:
  38:lib/BTT/src/STFT.c ****       self->real                 = calloc(self->fft_N      , sizeof(*(self->real)));
 181              		.loc 1 38 36 discriminator 4 view .LVU56
 182 0048 0421     		movs	r1, #4
  37:lib/BTT/src/STFT.c ****       self->running_output       = calloc(self->fft_N      , sizeof(*(self->running_output)));
 183              		.loc 1 37 34 discriminator 4 view .LVU57
 184 004a 6062     		str	r0, [r4, #36]
  38:lib/BTT/src/STFT.c ****       self->real                 = calloc(self->fft_N      , sizeof(*(self->real)));
ARM GAS  /var/folders/lw/_hmdf9396f92znj902yw3qj00000gn/T//ccOGyVsP.s 			page 6


 185              		.loc 1 38 7 is_stmt 1 discriminator 4 view .LVU58
  37:lib/BTT/src/STFT.c ****       self->running_output       = calloc(self->fft_N      , sizeof(*(self->running_output)));
 186              		.loc 1 37 36 is_stmt 0 discriminator 4 view .LVU59
 187 004c 8046     		mov	r8, r0
  38:lib/BTT/src/STFT.c ****       self->real                 = calloc(self->fft_N      , sizeof(*(self->real)));
 188              		.loc 1 38 36 discriminator 4 view .LVU60
 189 004e 4846     		mov	r0, r9
 190 0050 FFF7FEFF 		bl	calloc
 191              	.LVL15:
  39:lib/BTT/src/STFT.c ****       if(self->window           == NULL) return stft_destroy(self);
 192              		.loc 1 39 36 discriminator 4 view .LVU61
 193 0054 0421     		movs	r1, #4
  38:lib/BTT/src/STFT.c ****       self->real                 = calloc(self->fft_N      , sizeof(*(self->real)));
 194              		.loc 1 38 34 discriminator 4 view .LVU62
 195 0056 A062     		str	r0, [r4, #40]
  39:lib/BTT/src/STFT.c ****       if(self->window           == NULL) return stft_destroy(self);
 196              		.loc 1 39 7 is_stmt 1 discriminator 4 view .LVU63
  38:lib/BTT/src/STFT.c ****       self->real                 = calloc(self->fft_N      , sizeof(*(self->real)));
 197              		.loc 1 38 36 is_stmt 0 discriminator 4 view .LVU64
 198 0058 0746     		mov	r7, r0
 199              	.LVL16:
  39:lib/BTT/src/STFT.c ****       if(self->window           == NULL) return stft_destroy(self);
 200              		.loc 1 39 36 discriminator 4 view .LVU65
 201 005a 4846     		mov	r0, r9
 202 005c FFF7FEFF 		bl	calloc
 203              	.LVL17:
  39:lib/BTT/src/STFT.c ****       if(self->window           == NULL) return stft_destroy(self);
 204              		.loc 1 39 34 discriminator 4 view .LVU66
 205 0060 E062     		str	r0, [r4, #44]
  40:lib/BTT/src/STFT.c ****       if(self->running_input    == NULL) return stft_destroy(self);
 206              		.loc 1 40 7 is_stmt 1 discriminator 4 view .LVU67
  40:lib/BTT/src/STFT.c ****       if(self->running_input    == NULL) return stft_destroy(self);
 207              		.loc 1 40 9 is_stmt 0 discriminator 4 view .LVU68
 208 0062 36B9     		cbnz	r6, .L25
 209              	.L33:
  43:lib/BTT/src/STFT.c ****   
 210              		.loc 1 43 42 is_stmt 1 discriminator 1 view .LVU69
  43:lib/BTT/src/STFT.c ****   
 211              		.loc 1 43 49 is_stmt 0 discriminator 1 view .LVU70
 212 0064 2046     		mov	r0, r4
  49:lib/BTT/src/STFT.c **** 
 213              		.loc 1 49 1 discriminator 1 view .LVU71
 214 0066 BDE8F843 		pop	{r3, r4, r5, r6, r7, r8, r9, lr}
 215              		.cfi_remember_state
 216              		.cfi_restore 14
 217              		.cfi_restore 9
 218              		.cfi_restore 8
 219              		.cfi_restore 7
 220              		.cfi_restore 6
 221              		.cfi_restore 5
 222              		.cfi_restore 4
 223              		.cfi_restore 3
 224              		.cfi_def_cfa_offset 0
 225              	.LVL18:
  43:lib/BTT/src/STFT.c ****   
 226              		.loc 1 43 49 discriminator 1 view .LVU72
 227 006a FFF7FEBF 		b	stft_destroy
ARM GAS  /var/folders/lw/_hmdf9396f92znj902yw3qj00000gn/T//ccOGyVsP.s 			page 7


 228              	.LVL19:
 229              	.L29:
 230              		.cfi_restore_state
  30:lib/BTT/src/STFT.c ****       self->overlap              = overlap;
 231              		.loc 1 30 82 view .LVU73
 232 006e A946     		mov	r9, r5
 233 0070 D7E7     		b	.L24
 234              	.LVL20:
 235              	.L25:
  41:lib/BTT/src/STFT.c ****       if(self->running_output   == NULL) return stft_destroy(self);
 236              		.loc 1 41 7 is_stmt 1 view .LVU74
  41:lib/BTT/src/STFT.c ****       if(self->running_output   == NULL) return stft_destroy(self);
 237              		.loc 1 41 9 is_stmt 0 view .LVU75
 238 0072 B8F1000F 		cmp	r8, #0
 239 0076 F5D0     		beq	.L33
  42:lib/BTT/src/STFT.c ****       if(self->real             == NULL) return stft_destroy(self);
 240              		.loc 1 42 7 is_stmt 1 view .LVU76
  42:lib/BTT/src/STFT.c ****       if(self->real             == NULL) return stft_destroy(self);
 241              		.loc 1 42 9 is_stmt 0 view .LVU77
 242 0078 002F     		cmp	r7, #0
 243 007a F3D0     		beq	.L33
  43:lib/BTT/src/STFT.c ****   
 244              		.loc 1 43 7 is_stmt 1 view .LVU78
  43:lib/BTT/src/STFT.c ****   
 245              		.loc 1 43 9 is_stmt 0 view .LVU79
 246 007c 0028     		cmp	r0, #0
 247 007e F1D0     		beq	.L33
  46:lib/BTT/src/STFT.c ****   }
 248              		.loc 1 46 7 is_stmt 1 view .LVU80
 249 0080 2946     		mov	r1, r5
 250 0082 3046     		mov	r0, r6
 251 0084 FFF7FEFF 		bl	dft_init_blackman_window
 252              	.LVL21:
 253              	.L22:
  49:lib/BTT/src/STFT.c **** 
 254              		.loc 1 49 1 is_stmt 0 view .LVU81
 255 0088 2046     		mov	r0, r4
 256 008a BDE8F883 		pop	{r3, r4, r5, r6, r7, r8, r9, pc}
  49:lib/BTT/src/STFT.c **** 
 257              		.loc 1 49 1 view .LVU82
 258              		.cfi_endproc
 259              	.LFE320:
 261              		.section	.text.stft_process,"ax",%progbits
 262              		.align	1
 263              		.global	stft_process
 264              		.syntax unified
 265              		.thumb
 266              		.thumb_func
 268              	stft_process:
 269              	.LVL22:
 270              	.LFB322:
  69:lib/BTT/src/STFT.c **** 
  70:lib/BTT/src/STFT.c **** /*--------------------------------------------------------------------*/
  71:lib/BTT/src/STFT.c **** /* resynthesized samples, if any, returned in real_input */
  72:lib/BTT/src/STFT.c **** void stft_process(STFT* self, dft_sample_t* real_input, int len, stft_onprocess_t onprocess, void* 
  73:lib/BTT/src/STFT.c **** {
 271              		.loc 1 73 1 is_stmt 1 view -0
ARM GAS  /var/folders/lw/_hmdf9396f92znj902yw3qj00000gn/T//ccOGyVsP.s 			page 8


 272              		.cfi_startproc
 273              		@ args = 4, pretend = 0, frame = 0
 274              		@ frame_needed = 0, uses_anonymous_args = 0
  74:lib/BTT/src/STFT.c ****   int i, j;
 275              		.loc 1 74 3 view .LVU84
  75:lib/BTT/src/STFT.c **** 
  76:lib/BTT/src/STFT.c ****   for(i=0; i<len; i++)
 276              		.loc 1 76 3 view .LVU85
  73:lib/BTT/src/STFT.c ****   int i, j;
 277              		.loc 1 73 1 is_stmt 0 view .LVU86
 278 0000 2DE9F84F 		push	{r3, r4, r5, r6, r7, r8, r9, r10, fp, lr}
 279              		.cfi_def_cfa_offset 40
 280              		.cfi_offset 3, -40
 281              		.cfi_offset 4, -36
 282              		.cfi_offset 5, -32
 283              		.cfi_offset 6, -28
 284              		.cfi_offset 7, -24
 285              		.cfi_offset 8, -20
 286              		.cfi_offset 9, -16
 287              		.cfi_offset 10, -12
 288              		.cfi_offset 11, -8
 289              		.cfi_offset 14, -4
 290              		.loc 1 76 8 view .LVU87
 291 0004 0027     		movs	r7, #0
  73:lib/BTT/src/STFT.c ****   int i, j;
 292              		.loc 1 73 1 view .LVU88
 293 0006 0446     		mov	r4, r0
 294 0008 9046     		mov	r8, r2
 295 000a 9946     		mov	r9, r3
 296 000c 0E46     		mov	r6, r1
  77:lib/BTT/src/STFT.c ****     {
  78:lib/BTT/src/STFT.c ****       self->running_input[self->input_index++] = real_input[i];
  79:lib/BTT/src/STFT.c ****       self->input_index %= self->window_size;
  80:lib/BTT/src/STFT.c ****     
  81:lib/BTT/src/STFT.c ****       if(self->should_resynthesize)
  82:lib/BTT/src/STFT.c ****         {
  83:lib/BTT/src/STFT.c ****           real_input[i] = self->running_output[self->output_index];
  84:lib/BTT/src/STFT.c ****           self->running_output[self->output_index++] = 0;
 297              		.loc 1 84 54 view .LVU89
 298 000e 4FF0000B 		mov	fp, #0
  85:lib/BTT/src/STFT.c ****           self->output_index %= self->fft_N;
  86:lib/BTT/src/STFT.c ****         }
  87:lib/BTT/src/STFT.c ****     
  88:lib/BTT/src/STFT.c ****       if(++self->sample_counter == self->hop_size)
  89:lib/BTT/src/STFT.c ****         {
  90:lib/BTT/src/STFT.c ****           self->sample_counter = 0;
 299              		.loc 1 90 32 view .LVU90
 300 0012 BA46     		mov	r10, r7
 301              	.LVL23:
 302              	.L35:
  76:lib/BTT/src/STFT.c ****     {
 303              		.loc 1 76 12 is_stmt 1 discriminator 1 view .LVU91
  76:lib/BTT/src/STFT.c ****     {
 304              		.loc 1 76 3 is_stmt 0 discriminator 1 view .LVU92
 305 0014 4745     		cmp	r7, r8
 306 0016 01DB     		blt	.L45
  91:lib/BTT/src/STFT.c ****         
ARM GAS  /var/folders/lw/_hmdf9396f92znj902yw3qj00000gn/T//ccOGyVsP.s 			page 9


  92:lib/BTT/src/STFT.c ****           for(j=0; j<self->window_size; j++)
  93:lib/BTT/src/STFT.c ****             {
  94:lib/BTT/src/STFT.c ****               self->real[j] = self->running_input[(self->input_index+j) % self->window_size];
  95:lib/BTT/src/STFT.c ****             }
  96:lib/BTT/src/STFT.c **** 
  97:lib/BTT/src/STFT.c ****           dft_apply_window(self->real, self->window, self->window_size);
  98:lib/BTT/src/STFT.c ****           for(j=self->window_size; j<self->fft_N; j++)
  99:lib/BTT/src/STFT.c ****             {
 100:lib/BTT/src/STFT.c ****               self->real[j] = 0;
 101:lib/BTT/src/STFT.c ****             }
 102:lib/BTT/src/STFT.c ****           rdft_real_forward_dft(self->real, self->fft_N);
 103:lib/BTT/src/STFT.c ****           onprocess           (onprocess_self, self->real, self->fft_N);
 104:lib/BTT/src/STFT.c ****           if(self->should_resynthesize)
 105:lib/BTT/src/STFT.c ****             {
 106:lib/BTT/src/STFT.c ****               rdft_real_inverse_dft(self->real, self->fft_N);
 107:lib/BTT/src/STFT.c ****               for(j=0; j<self->fft_N; j++)
 108:lib/BTT/src/STFT.c ****                 self->running_output[(self->output_index+j) % self->fft_N] += self->real[j];
 109:lib/BTT/src/STFT.c ****             }
 110:lib/BTT/src/STFT.c ****         }
 111:lib/BTT/src/STFT.c ****     }
 112:lib/BTT/src/STFT.c **** }
 307              		.loc 1 112 1 view .LVU93
 308 0018 BDE8F88F 		pop	{r3, r4, r5, r6, r7, r8, r9, r10, fp, pc}
 309              	.LVL24:
 310              	.L45:
  78:lib/BTT/src/STFT.c ****       self->input_index %= self->window_size;
 311              		.loc 1 78 7 is_stmt 1 view .LVU94
  78:lib/BTT/src/STFT.c ****       self->input_index %= self->window_size;
 312              		.loc 1 78 31 is_stmt 0 view .LVU95
 313 001c A569     		ldr	r5, [r4, #24]
  78:lib/BTT/src/STFT.c ****       self->input_index %= self->window_size;
 314              		.loc 1 78 11 view .LVU96
 315 001e D4F824C0 		ldr	ip, [r4, #36]
  78:lib/BTT/src/STFT.c ****       self->input_index %= self->window_size;
 316              		.loc 1 78 60 view .LVU97
 317 0022 3268     		ldr	r2, [r6]	@ float
  78:lib/BTT/src/STFT.c ****       self->input_index %= self->window_size;
 318              		.loc 1 78 48 view .LVU98
 319 0024 0CEB8503 		add	r3, ip, r5, lsl #2
  78:lib/BTT/src/STFT.c ****       self->input_index %= self->window_size;
 320              		.loc 1 78 44 view .LVU99
 321 0028 0135     		adds	r5, r5, #1
  78:lib/BTT/src/STFT.c ****       self->input_index %= self->window_size;
 322              		.loc 1 78 48 view .LVU100
 323 002a 1A60     		str	r2, [r3]	@ float
  79:lib/BTT/src/STFT.c ****     
 324              		.loc 1 79 7 is_stmt 1 view .LVU101
  79:lib/BTT/src/STFT.c ****     
 325              		.loc 1 79 32 is_stmt 0 view .LVU102
 326 002c 6268     		ldr	r2, [r4, #4]
  79:lib/BTT/src/STFT.c ****     
 327              		.loc 1 79 25 view .LVU103
 328 002e 95FBF2F3 		sdiv	r3, r5, r2
 329 0032 02FB1355 		mls	r5, r2, r3, r5
  81:lib/BTT/src/STFT.c ****         {
 330              		.loc 1 81 9 view .LVU104
 331 0036 2368     		ldr	r3, [r4]
ARM GAS  /var/folders/lw/_hmdf9396f92znj902yw3qj00000gn/T//ccOGyVsP.s 			page 10


  79:lib/BTT/src/STFT.c ****     
 332              		.loc 1 79 25 view .LVU105
 333 0038 A561     		str	r5, [r4, #24]
  81:lib/BTT/src/STFT.c ****         {
 334              		.loc 1 81 7 is_stmt 1 view .LVU106
  81:lib/BTT/src/STFT.c ****         {
 335              		.loc 1 81 9 is_stmt 0 view .LVU107
 336 003a 73B1     		cbz	r3, .L36
  83:lib/BTT/src/STFT.c ****           self->running_output[self->output_index++] = 0;
 337              		.loc 1 83 11 is_stmt 1 view .LVU108
  83:lib/BTT/src/STFT.c ****           self->running_output[self->output_index++] = 0;
 338              		.loc 1 83 52 is_stmt 0 view .LVU109
 339 003c E069     		ldr	r0, [r4, #28]
  83:lib/BTT/src/STFT.c ****           self->running_output[self->output_index++] = 0;
 340              		.loc 1 83 47 view .LVU110
 341 003e A36A     		ldr	r3, [r4, #40]
 342 0040 03EB8003 		add	r3, r3, r0, lsl #2
  84:lib/BTT/src/STFT.c ****           self->output_index %= self->fft_N;
 343              		.loc 1 84 50 view .LVU111
 344 0044 0130     		adds	r0, r0, #1
  83:lib/BTT/src/STFT.c ****           self->running_output[self->output_index++] = 0;
 345              		.loc 1 83 47 view .LVU112
 346 0046 1968     		ldr	r1, [r3]	@ float
  83:lib/BTT/src/STFT.c ****           self->running_output[self->output_index++] = 0;
 347              		.loc 1 83 25 view .LVU113
 348 0048 3160     		str	r1, [r6]	@ float
  84:lib/BTT/src/STFT.c ****           self->output_index %= self->fft_N;
 349              		.loc 1 84 11 is_stmt 1 view .LVU114
  84:lib/BTT/src/STFT.c ****           self->output_index %= self->fft_N;
 350              		.loc 1 84 54 is_stmt 0 view .LVU115
 351 004a C3F800B0 		str	fp, [r3]	@ float
  85:lib/BTT/src/STFT.c ****         }
 352              		.loc 1 85 11 is_stmt 1 view .LVU116
  85:lib/BTT/src/STFT.c ****         }
 353              		.loc 1 85 30 is_stmt 0 view .LVU117
 354 004e A368     		ldr	r3, [r4, #8]
 355 0050 90FBF3F1 		sdiv	r1, r0, r3
 356 0054 03FB1100 		mls	r0, r3, r1, r0
 357 0058 E061     		str	r0, [r4, #28]
 358              	.L36:
  88:lib/BTT/src/STFT.c ****         {
 359              		.loc 1 88 7 is_stmt 1 view .LVU118
  88:lib/BTT/src/STFT.c ****         {
 360              		.loc 1 88 10 is_stmt 0 view .LVU119
 361 005a 6369     		ldr	r3, [r4, #20]
  88:lib/BTT/src/STFT.c ****         {
 362              		.loc 1 88 9 view .LVU120
 363 005c 2169     		ldr	r1, [r4, #16]
  88:lib/BTT/src/STFT.c ****         {
 364              		.loc 1 88 10 view .LVU121
 365 005e 0133     		adds	r3, r3, #1
  88:lib/BTT/src/STFT.c ****         {
 366              		.loc 1 88 9 view .LVU122
 367 0060 8B42     		cmp	r3, r1
 368 0062 6361     		str	r3, [r4, #20]
 369 0064 02D0     		beq	.L37
 370              	.L42:
ARM GAS  /var/folders/lw/_hmdf9396f92znj902yw3qj00000gn/T//ccOGyVsP.s 			page 11


  76:lib/BTT/src/STFT.c ****     {
 371              		.loc 1 76 19 is_stmt 1 view .LVU123
  76:lib/BTT/src/STFT.c ****     {
 372              		.loc 1 76 20 is_stmt 0 view .LVU124
 373 0066 0137     		adds	r7, r7, #1
 374              	.LVL25:
  76:lib/BTT/src/STFT.c ****     {
 375              		.loc 1 76 20 view .LVU125
 376 0068 0436     		adds	r6, r6, #4
 377 006a D3E7     		b	.L35
 378              	.L37:
  90:lib/BTT/src/STFT.c ****         
 379              		.loc 1 90 11 is_stmt 1 view .LVU126
  94:lib/BTT/src/STFT.c ****             }
 380              		.loc 1 94 19 is_stmt 0 view .LVU127
 381 006c E06A     		ldr	r0, [r4, #44]
  92:lib/BTT/src/STFT.c ****             {
 382              		.loc 1 92 16 view .LVU128
 383 006e 0021     		movs	r1, #0
  90:lib/BTT/src/STFT.c ****         
 384              		.loc 1 90 32 view .LVU129
 385 0070 C4F814A0 		str	r10, [r4, #20]
  92:lib/BTT/src/STFT.c ****             {
 386              		.loc 1 92 11 is_stmt 1 view .LVU130
 387              	.LVL26:
 388              	.L38:
  92:lib/BTT/src/STFT.c ****             {
 389              		.loc 1 92 20 discriminator 1 view .LVU131
  92:lib/BTT/src/STFT.c ****             {
 390              		.loc 1 92 11 is_stmt 0 discriminator 1 view .LVU132
 391 0074 8A42     		cmp	r2, r1
 392 0076 2EDC     		bgt	.L39
  97:lib/BTT/src/STFT.c ****           for(j=self->window_size; j<self->fft_N; j++)
 393              		.loc 1 97 11 is_stmt 1 view .LVU133
 394 0078 216A     		ldr	r1, [r4, #32]
 395              	.LVL27:
  97:lib/BTT/src/STFT.c ****           for(j=self->window_size; j<self->fft_N; j++)
 396              		.loc 1 97 11 is_stmt 0 view .LVU134
 397 007a FFF7FEFF 		bl	dft_apply_window
 398              	.LVL28:
  98:lib/BTT/src/STFT.c ****             {
 399              		.loc 1 98 11 is_stmt 1 view .LVU135
 100:lib/BTT/src/STFT.c ****             }
 400              		.loc 1 100 19 is_stmt 0 view .LVU136
 401 007e E06A     		ldr	r0, [r4, #44]
  98:lib/BTT/src/STFT.c ****             {
 402              		.loc 1 98 42 view .LVU137
 403 0080 D4E90131 		ldrd	r3, r1, [r4, #4]
 404              	.L40:
 405              	.LVL29:
  98:lib/BTT/src/STFT.c ****             {
 406              		.loc 1 98 36 is_stmt 1 discriminator 1 view .LVU138
  98:lib/BTT/src/STFT.c ****             {
 407              		.loc 1 98 11 is_stmt 0 discriminator 1 view .LVU139
 408 0084 9942     		cmp	r1, r3
 409 0086 35DC     		bgt	.L41
 102:lib/BTT/src/STFT.c ****           onprocess           (onprocess_self, self->real, self->fft_N);
ARM GAS  /var/folders/lw/_hmdf9396f92znj902yw3qj00000gn/T//ccOGyVsP.s 			page 12


 410              		.loc 1 102 11 is_stmt 1 view .LVU140
 411 0088 FFF7FEFF 		bl	rdft_real_forward_dft
 412              	.LVL30:
 103:lib/BTT/src/STFT.c ****           if(self->should_resynthesize)
 413              		.loc 1 103 11 view .LVU141
 414 008c A268     		ldr	r2, [r4, #8]
 415 008e E16A     		ldr	r1, [r4, #44]
 416 0090 0A98     		ldr	r0, [sp, #40]
 417 0092 C847     		blx	r9
 418              	.LVL31:
 104:lib/BTT/src/STFT.c ****             {
 419              		.loc 1 104 11 view .LVU142
 104:lib/BTT/src/STFT.c ****             {
 420              		.loc 1 104 13 is_stmt 0 view .LVU143
 421 0094 2368     		ldr	r3, [r4]
 422 0096 002B     		cmp	r3, #0
 423 0098 E5D0     		beq	.L42
 106:lib/BTT/src/STFT.c ****               for(j=0; j<self->fft_N; j++)
 424              		.loc 1 106 15 is_stmt 1 view .LVU144
 425 009a E06A     		ldr	r0, [r4, #44]
 426 009c A168     		ldr	r1, [r4, #8]
 427 009e FFF7FEFF 		bl	rdft_real_inverse_dft
 428              	.LVL32:
 107:lib/BTT/src/STFT.c ****                 self->running_output[(self->output_index+j) % self->fft_N] += self->real[j];
 429              		.loc 1 107 15 view .LVU145
 107:lib/BTT/src/STFT.c ****                 self->running_output[(self->output_index+j) % self->fft_N] += self->real[j];
 430              		.loc 1 107 30 is_stmt 0 view .LVU146
 431 00a2 A068     		ldr	r0, [r4, #8]
 107:lib/BTT/src/STFT.c ****                 self->running_output[(self->output_index+j) % self->fft_N] += self->real[j];
 432              		.loc 1 107 20 view .LVU147
 433 00a4 0022     		movs	r2, #0
 434              	.LVL33:
 435              	.L43:
 107:lib/BTT/src/STFT.c ****                 self->running_output[(self->output_index+j) % self->fft_N] += self->real[j];
 436              		.loc 1 107 24 is_stmt 1 discriminator 1 view .LVU148
 107:lib/BTT/src/STFT.c ****                 self->running_output[(self->output_index+j) % self->fft_N] += self->real[j];
 437              		.loc 1 107 15 is_stmt 0 discriminator 1 view .LVU149
 438 00a6 9042     		cmp	r0, r2
 439 00a8 DDDD     		ble	.L42
 108:lib/BTT/src/STFT.c ****             }
 440              		.loc 1 108 17 is_stmt 1 discriminator 3 view .LVU150
 108:lib/BTT/src/STFT.c ****             }
 441              		.loc 1 108 57 is_stmt 0 discriminator 3 view .LVU151
 442 00aa E369     		ldr	r3, [r4, #28]
 443 00ac 1344     		add	r3, r3, r2
 108:lib/BTT/src/STFT.c ****             }
 444              		.loc 1 108 61 discriminator 3 view .LVU152
 445 00ae 93FBF0F1 		sdiv	r1, r3, r0
 446 00b2 00FB1133 		mls	r3, r0, r1, r3
 108:lib/BTT/src/STFT.c ****             }
 447              		.loc 1 108 76 discriminator 3 view .LVU153
 448 00b6 A16A     		ldr	r1, [r4, #40]
 449 00b8 01EB8303 		add	r3, r1, r3, lsl #2
 108:lib/BTT/src/STFT.c ****             }
 450              		.loc 1 108 89 discriminator 3 view .LVU154
 451 00bc E16A     		ldr	r1, [r4, #44]
 452 00be 01EB8201 		add	r1, r1, r2, lsl #2
ARM GAS  /var/folders/lw/_hmdf9396f92znj902yw3qj00000gn/T//ccOGyVsP.s 			page 13


 108:lib/BTT/src/STFT.c ****             }
 453              		.loc 1 108 76 discriminator 3 view .LVU155
 454 00c2 D3ED007A 		vldr.32	s15, [r3]
 107:lib/BTT/src/STFT.c ****                 self->running_output[(self->output_index+j) % self->fft_N] += self->real[j];
 455              		.loc 1 107 40 discriminator 3 view .LVU156
 456 00c6 0132     		adds	r2, r2, #1
 457              	.LVL34:
 108:lib/BTT/src/STFT.c ****             }
 458              		.loc 1 108 76 discriminator 3 view .LVU157
 459 00c8 91ED007A 		vldr.32	s14, [r1]
 460 00cc 77EE877A 		vadd.f32	s15, s15, s14
 461 00d0 C3ED007A 		vstr.32	s15, [r3]
 107:lib/BTT/src/STFT.c ****                 self->running_output[(self->output_index+j) % self->fft_N] += self->real[j];
 462              		.loc 1 107 39 is_stmt 1 discriminator 3 view .LVU158
 463              	.LVL35:
 107:lib/BTT/src/STFT.c ****                 self->running_output[(self->output_index+j) % self->fft_N] += self->real[j];
 464              		.loc 1 107 39 is_stmt 0 discriminator 3 view .LVU159
 465 00d4 E7E7     		b	.L43
 466              	.LVL36:
 467              	.L39:
  94:lib/BTT/src/STFT.c ****             }
 468              		.loc 1 94 15 is_stmt 1 discriminator 3 view .LVU160
  94:lib/BTT/src/STFT.c ****             }
 469              		.loc 1 94 73 is_stmt 0 discriminator 3 view .LVU161
 470 00d6 6B18     		adds	r3, r5, r1
 471 00d8 93FBF2FE 		sdiv	lr, r3, r2
 472 00dc 02FB1E33 		mls	r3, r2, lr, r3
  94:lib/BTT/src/STFT.c ****             }
 473              		.loc 1 94 50 discriminator 3 view .LVU162
 474 00e0 0CEB8303 		add	r3, ip, r3, lsl #2
 475 00e4 D3F800E0 		ldr	lr, [r3]	@ float
  94:lib/BTT/src/STFT.c ****             }
 476              		.loc 1 94 29 discriminator 3 view .LVU163
 477 00e8 00EB8103 		add	r3, r0, r1, lsl #2
  92:lib/BTT/src/STFT.c ****             {
 478              		.loc 1 92 42 discriminator 3 view .LVU164
 479 00ec 0131     		adds	r1, r1, #1
 480              	.LVL37:
  94:lib/BTT/src/STFT.c ****             }
 481              		.loc 1 94 29 discriminator 3 view .LVU165
 482 00ee C3F800E0 		str	lr, [r3]	@ float
  92:lib/BTT/src/STFT.c ****             {
 483              		.loc 1 92 41 is_stmt 1 discriminator 3 view .LVU166
 484              	.LVL38:
  92:lib/BTT/src/STFT.c ****             {
 485              		.loc 1 92 41 is_stmt 0 discriminator 3 view .LVU167
 486 00f2 BFE7     		b	.L38
 487              	.LVL39:
 488              	.L41:
 100:lib/BTT/src/STFT.c ****             }
 489              		.loc 1 100 15 is_stmt 1 discriminator 3 view .LVU168
 100:lib/BTT/src/STFT.c ****             }
 490              		.loc 1 100 29 is_stmt 0 discriminator 3 view .LVU169
 491 00f4 00EB8302 		add	r2, r0, r3, lsl #2
  98:lib/BTT/src/STFT.c ****             {
 492              		.loc 1 98 52 discriminator 3 view .LVU170
 493 00f8 0133     		adds	r3, r3, #1
ARM GAS  /var/folders/lw/_hmdf9396f92znj902yw3qj00000gn/T//ccOGyVsP.s 			page 14


 494              	.LVL40:
 100:lib/BTT/src/STFT.c ****             }
 495              		.loc 1 100 29 discriminator 3 view .LVU171
 496 00fa C2F800B0 		str	fp, [r2]	@ float
  98:lib/BTT/src/STFT.c ****             {
 497              		.loc 1 98 51 is_stmt 1 discriminator 3 view .LVU172
 498              	.LVL41:
  98:lib/BTT/src/STFT.c ****             {
 499              		.loc 1 98 51 is_stmt 0 discriminator 3 view .LVU173
 500 00fe C1E7     		b	.L40
 501              		.cfi_endproc
 502              	.LFE322:
 504              		.section	.text.stft_get_N,"ax",%progbits
 505              		.align	1
 506              		.global	stft_get_N
 507              		.syntax unified
 508              		.thumb
 509              		.thumb_func
 511              	stft_get_N:
 512              	.LVL42:
 513              	.LFB323:
 113:lib/BTT/src/STFT.c **** 
 114:lib/BTT/src/STFT.c **** /*--------------------------------------------------------------------*/
 115:lib/BTT/src/STFT.c **** int   stft_get_N (STFT* self)
 116:lib/BTT/src/STFT.c **** {
 514              		.loc 1 116 1 is_stmt 1 view -0
 515              		.cfi_startproc
 516              		@ args = 0, pretend = 0, frame = 0
 517              		@ frame_needed = 0, uses_anonymous_args = 0
 518              		@ link register save eliminated.
 117:lib/BTT/src/STFT.c ****   return self->fft_N;
 519              		.loc 1 117 3 view .LVU175
 118:lib/BTT/src/STFT.c **** }
 520              		.loc 1 118 1 is_stmt 0 view .LVU176
 521 0000 8068     		ldr	r0, [r0, #8]
 522              	.LVL43:
 523              		.loc 1 118 1 view .LVU177
 524 0002 7047     		bx	lr
 525              		.cfi_endproc
 526              	.LFE323:
 528              		.section	.text.stft_get_overlap,"ax",%progbits
 529              		.align	1
 530              		.global	stft_get_overlap
 531              		.syntax unified
 532              		.thumb
 533              		.thumb_func
 535              	stft_get_overlap:
 536              	.LVL44:
 537              	.LFB324:
 119:lib/BTT/src/STFT.c **** 
 120:lib/BTT/src/STFT.c **** /*--------------------------------------------------------------------*/
 121:lib/BTT/src/STFT.c **** int     stft_get_overlap (STFT* self)
 122:lib/BTT/src/STFT.c **** {
 538              		.loc 1 122 1 is_stmt 1 view -0
 539              		.cfi_startproc
 540              		@ args = 0, pretend = 0, frame = 0
 541              		@ frame_needed = 0, uses_anonymous_args = 0
ARM GAS  /var/folders/lw/_hmdf9396f92znj902yw3qj00000gn/T//ccOGyVsP.s 			page 15


 542              		@ link register save eliminated.
 123:lib/BTT/src/STFT.c ****   return self->overlap;
 543              		.loc 1 123 3 view .LVU179
 124:lib/BTT/src/STFT.c **** }
 544              		.loc 1 124 1 is_stmt 0 view .LVU180
 545 0000 C068     		ldr	r0, [r0, #12]
 546              	.LVL45:
 547              		.loc 1 124 1 view .LVU181
 548 0002 7047     		bx	lr
 549              		.cfi_endproc
 550              	.LFE324:
 552              		.section	.text.stft_get_hop,"ax",%progbits
 553              		.align	1
 554              		.global	stft_get_hop
 555              		.syntax unified
 556              		.thumb
 557              		.thumb_func
 559              	stft_get_hop:
 560              	.LVL46:
 561              	.LFB325:
 125:lib/BTT/src/STFT.c **** 
 126:lib/BTT/src/STFT.c **** /*--------------------------------------------------------------------*/
 127:lib/BTT/src/STFT.c **** int     stft_get_hop     (STFT* self)
 128:lib/BTT/src/STFT.c **** {
 562              		.loc 1 128 1 is_stmt 1 view -0
 563              		.cfi_startproc
 564              		@ args = 0, pretend = 0, frame = 0
 565              		@ frame_needed = 0, uses_anonymous_args = 0
 566              		@ link register save eliminated.
 129:lib/BTT/src/STFT.c ****   return self->hop_size;
 567              		.loc 1 129 3 view .LVU183
 130:lib/BTT/src/STFT.c **** }
 568              		.loc 1 130 1 is_stmt 0 view .LVU184
 569 0000 0069     		ldr	r0, [r0, #16]
 570              	.LVL47:
 571              		.loc 1 130 1 view .LVU185
 572 0002 7047     		bx	lr
 573              		.cfi_endproc
 574              	.LFE325:
 576              		.section	.text.two_stfts_destroy,"ax",%progbits
 577              		.align	1
 578              		.global	two_stfts_destroy
 579              		.syntax unified
 580              		.thumb
 581              		.thumb_func
 583              	two_stfts_destroy:
 584              	.LVL48:
 585              	.LFB327:
 131:lib/BTT/src/STFT.c **** 
 132:lib/BTT/src/STFT.c **** /*--------------------------------------------------------------------*/
 133:lib/BTT/src/STFT.c **** /*--------------------------------------------------------------------*/
 134:lib/BTT/src/STFT.c **** /*--------------------------------------------------------------------*/
 135:lib/BTT/src/STFT.c **** /*--------------------------------------------------------------------*/
 136:lib/BTT/src/STFT.c **** /*--------------------------------------------------------------------*/
 137:lib/BTT/src/STFT.c **** /*--------------------------------------------------------------------*/
 138:lib/BTT/src/STFT.c **** struct Opaque_TWO_STFTS_Struct
 139:lib/BTT/src/STFT.c **** {
ARM GAS  /var/folders/lw/_hmdf9396f92znj902yw3qj00000gn/T//ccOGyVsP.s 			page 16


 140:lib/BTT/src/STFT.c ****   int           should_resynthesize;
 141:lib/BTT/src/STFT.c ****   int           window_size;
 142:lib/BTT/src/STFT.c ****   int           fft_N;
 143:lib/BTT/src/STFT.c ****   int           overlap;
 144:lib/BTT/src/STFT.c ****   int           hop_size;
 145:lib/BTT/src/STFT.c ****   int           sample_counter;
 146:lib/BTT/src/STFT.c ****   int           input_index;
 147:lib/BTT/src/STFT.c ****   int           output_index;;
 148:lib/BTT/src/STFT.c ****   dft_sample_t* window;
 149:lib/BTT/src/STFT.c ****   dft_sample_t* running_input;
 150:lib/BTT/src/STFT.c ****   dft_sample_t* running_output;
 151:lib/BTT/src/STFT.c ****   dft_sample_t* real;
 152:lib/BTT/src/STFT.c ****   dft_sample_t* imag;
 153:lib/BTT/src/STFT.c ****   dft_sample_t* running_input_2;
 154:lib/BTT/src/STFT.c ****   dft_sample_t* running_output_2;
 155:lib/BTT/src/STFT.c ****   dft_sample_t* real_2;
 156:lib/BTT/src/STFT.c ****   dft_sample_t* imag_2;
 157:lib/BTT/src/STFT.c **** };
 158:lib/BTT/src/STFT.c **** 
 159:lib/BTT/src/STFT.c **** 
 160:lib/BTT/src/STFT.c **** 
 161:lib/BTT/src/STFT.c **** /*--------------------------------------------------------------------*/
 162:lib/BTT/src/STFT.c **** TWO_STFTS* two_stfts_new(int window_size /*power of 2 please*/, int overlap /* 1, 2, 4, 8 */, int s
 163:lib/BTT/src/STFT.c **** {
 164:lib/BTT/src/STFT.c ****   TWO_STFTS* self = calloc(1, sizeof(*self));
 165:lib/BTT/src/STFT.c ****   if(self != NULL)
 166:lib/BTT/src/STFT.c ****     {
 167:lib/BTT/src/STFT.c ****       self->should_resynthesize  = should_resynthesize;
 168:lib/BTT/src/STFT.c ****       self->window_size          = window_size;
 169:lib/BTT/src/STFT.c ****       self->fft_N                = (should_resynthesize) ? overlap * window_size : window_size;
 170:lib/BTT/src/STFT.c ****       self->overlap              = overlap;
 171:lib/BTT/src/STFT.c ****       self->hop_size             = window_size / overlap;
 172:lib/BTT/src/STFT.c ****       self->sample_counter       = 0;
 173:lib/BTT/src/STFT.c **** 
 174:lib/BTT/src/STFT.c ****       self->input_index          = 0;
 175:lib/BTT/src/STFT.c ****       self->output_index         = 0;
 176:lib/BTT/src/STFT.c **** 
 177:lib/BTT/src/STFT.c ****       self->window               = calloc(self->window_size, sizeof(*(self->window)));
 178:lib/BTT/src/STFT.c ****       self->running_input        = calloc(self->window_size, sizeof(*(self->running_input)));
 179:lib/BTT/src/STFT.c ****       self->running_output       = calloc(self->fft_N      , sizeof(*(self->running_output)));
 180:lib/BTT/src/STFT.c ****       self->real                 = calloc(self->fft_N      , sizeof(*(self->real)));
 181:lib/BTT/src/STFT.c ****       self->imag                 = calloc(self->fft_N      , sizeof(*(self->imag)));
 182:lib/BTT/src/STFT.c ****       self->running_input_2      = calloc(self->window_size, sizeof(*(self->running_input_2)));
 183:lib/BTT/src/STFT.c ****       self->running_output_2     = calloc(self->fft_N      , sizeof(*(self->running_output_2)));
 184:lib/BTT/src/STFT.c ****       self->real_2               = calloc(self->fft_N      , sizeof(*(self->real_2)));
 185:lib/BTT/src/STFT.c ****       self->imag_2               = calloc(self->fft_N      , sizeof(*(self->imag_2)));
 186:lib/BTT/src/STFT.c **** 
 187:lib/BTT/src/STFT.c ****       if(self->window           == NULL) return two_stfts_destroy(self);
 188:lib/BTT/src/STFT.c ****       if(self->running_input    == NULL) return two_stfts_destroy(self);
 189:lib/BTT/src/STFT.c ****       if(self->running_output   == NULL) return two_stfts_destroy(self);
 190:lib/BTT/src/STFT.c ****       if(self->real             == NULL) return two_stfts_destroy(self);
 191:lib/BTT/src/STFT.c ****       if(self->imag             == NULL) return two_stfts_destroy(self);
 192:lib/BTT/src/STFT.c ****       if(self->running_input_2  == NULL) return two_stfts_destroy(self);
 193:lib/BTT/src/STFT.c ****       if(self->running_output_2 == NULL) return two_stfts_destroy(self);
 194:lib/BTT/src/STFT.c ****       if(self->real_2           == NULL) return two_stfts_destroy(self);
 195:lib/BTT/src/STFT.c ****       if(self->imag_2           == NULL) return two_stfts_destroy(self);
 196:lib/BTT/src/STFT.c **** 
ARM GAS  /var/folders/lw/_hmdf9396f92znj902yw3qj00000gn/T//ccOGyVsP.s 			page 17


 197:lib/BTT/src/STFT.c ****       //no choice for now
 198:lib/BTT/src/STFT.c ****       dft_init_blackman_window(self->window, self->window_size);
 199:lib/BTT/src/STFT.c ****   }
 200:lib/BTT/src/STFT.c ****   
 201:lib/BTT/src/STFT.c ****   return self;
 202:lib/BTT/src/STFT.c **** }
 203:lib/BTT/src/STFT.c **** 
 204:lib/BTT/src/STFT.c **** /*--------------------------------------------------------------------*/
 205:lib/BTT/src/STFT.c **** TWO_STFTS* two_stfts_destroy(TWO_STFTS* self)
 206:lib/BTT/src/STFT.c **** {
 586              		.loc 1 206 1 is_stmt 1 view -0
 587              		.cfi_startproc
 588              		@ args = 0, pretend = 0, frame = 0
 589              		@ frame_needed = 0, uses_anonymous_args = 0
 207:lib/BTT/src/STFT.c ****   if(self != NULL)
 590              		.loc 1 207 3 view .LVU187
 206:lib/BTT/src/STFT.c ****   if(self != NULL)
 591              		.loc 1 206 1 is_stmt 0 view .LVU188
 592 0000 10B5     		push	{r4, lr}
 593              		.cfi_def_cfa_offset 8
 594              		.cfi_offset 4, -8
 595              		.cfi_offset 14, -4
 596              		.loc 1 207 5 view .LVU189
 597 0002 0446     		mov	r4, r0
 598 0004 30B3     		cbz	r0, .L56
 208:lib/BTT/src/STFT.c ****     {
 209:lib/BTT/src/STFT.c ****       if(self->window != NULL)
 599              		.loc 1 209 7 is_stmt 1 view .LVU190
 600              		.loc 1 209 14 is_stmt 0 view .LVU191
 601 0006 006A     		ldr	r0, [r0, #32]
 602              	.LVL49:
 603              		.loc 1 209 9 view .LVU192
 604 0008 08B1     		cbz	r0, .L57
 210:lib/BTT/src/STFT.c ****         free(self->window);
 605              		.loc 1 210 9 is_stmt 1 view .LVU193
 606 000a FFF7FEFF 		bl	free
 607              	.LVL50:
 608              	.L57:
 211:lib/BTT/src/STFT.c ****       if(self->running_input != NULL)
 609              		.loc 1 211 7 view .LVU194
 610              		.loc 1 211 14 is_stmt 0 view .LVU195
 611 000e 606A     		ldr	r0, [r4, #36]
 612              		.loc 1 211 9 view .LVU196
 613 0010 08B1     		cbz	r0, .L58
 212:lib/BTT/src/STFT.c ****         free(self->running_input);
 614              		.loc 1 212 9 is_stmt 1 view .LVU197
 615 0012 FFF7FEFF 		bl	free
 616              	.LVL51:
 617              	.L58:
 213:lib/BTT/src/STFT.c ****       if(self->running_output != NULL)
 618              		.loc 1 213 7 view .LVU198
 619              		.loc 1 213 14 is_stmt 0 view .LVU199
 620 0016 A06A     		ldr	r0, [r4, #40]
 621              		.loc 1 213 9 view .LVU200
 622 0018 08B1     		cbz	r0, .L59
 214:lib/BTT/src/STFT.c ****         free(self->running_output);
 623              		.loc 1 214 9 is_stmt 1 view .LVU201
ARM GAS  /var/folders/lw/_hmdf9396f92znj902yw3qj00000gn/T//ccOGyVsP.s 			page 18


 624 001a FFF7FEFF 		bl	free
 625              	.LVL52:
 626              	.L59:
 215:lib/BTT/src/STFT.c ****       if(self->real != NULL)
 627              		.loc 1 215 7 view .LVU202
 628              		.loc 1 215 14 is_stmt 0 view .LVU203
 629 001e E06A     		ldr	r0, [r4, #44]
 630              		.loc 1 215 9 view .LVU204
 631 0020 08B1     		cbz	r0, .L60
 216:lib/BTT/src/STFT.c ****         free(self->real);
 632              		.loc 1 216 9 is_stmt 1 view .LVU205
 633 0022 FFF7FEFF 		bl	free
 634              	.LVL53:
 635              	.L60:
 217:lib/BTT/src/STFT.c ****       if(self->imag != NULL)
 636              		.loc 1 217 7 view .LVU206
 637              		.loc 1 217 14 is_stmt 0 view .LVU207
 638 0026 206B     		ldr	r0, [r4, #48]
 639              		.loc 1 217 9 view .LVU208
 640 0028 08B1     		cbz	r0, .L61
 218:lib/BTT/src/STFT.c ****         free(self->imag);
 641              		.loc 1 218 9 is_stmt 1 view .LVU209
 642 002a FFF7FEFF 		bl	free
 643              	.LVL54:
 644              	.L61:
 219:lib/BTT/src/STFT.c ****       if(self->running_input_2 != NULL)
 645              		.loc 1 219 7 view .LVU210
 646              		.loc 1 219 14 is_stmt 0 view .LVU211
 647 002e 606B     		ldr	r0, [r4, #52]
 648              		.loc 1 219 9 view .LVU212
 649 0030 08B1     		cbz	r0, .L62
 220:lib/BTT/src/STFT.c ****         free(self->running_input_2);
 650              		.loc 1 220 9 is_stmt 1 view .LVU213
 651 0032 FFF7FEFF 		bl	free
 652              	.LVL55:
 653              	.L62:
 221:lib/BTT/src/STFT.c ****       if(self->running_output_2 != NULL)
 654              		.loc 1 221 7 view .LVU214
 655              		.loc 1 221 14 is_stmt 0 view .LVU215
 656 0036 A06B     		ldr	r0, [r4, #56]
 657              		.loc 1 221 9 view .LVU216
 658 0038 08B1     		cbz	r0, .L63
 222:lib/BTT/src/STFT.c ****         free(self->running_output_2);
 659              		.loc 1 222 9 is_stmt 1 view .LVU217
 660 003a FFF7FEFF 		bl	free
 661              	.LVL56:
 662              	.L63:
 223:lib/BTT/src/STFT.c ****       if(self->real_2 != NULL)
 663              		.loc 1 223 7 view .LVU218
 664              		.loc 1 223 14 is_stmt 0 view .LVU219
 665 003e E06B     		ldr	r0, [r4, #60]
 666              		.loc 1 223 9 view .LVU220
 667 0040 08B1     		cbz	r0, .L64
 224:lib/BTT/src/STFT.c ****         free(self->real_2);
 668              		.loc 1 224 9 is_stmt 1 view .LVU221
 669 0042 FFF7FEFF 		bl	free
 670              	.LVL57:
ARM GAS  /var/folders/lw/_hmdf9396f92znj902yw3qj00000gn/T//ccOGyVsP.s 			page 19


 671              	.L64:
 225:lib/BTT/src/STFT.c ****       if(self->imag_2 != NULL)
 672              		.loc 1 225 7 view .LVU222
 673              		.loc 1 225 14 is_stmt 0 view .LVU223
 674 0046 206C     		ldr	r0, [r4, #64]
 675              		.loc 1 225 9 view .LVU224
 676 0048 08B1     		cbz	r0, .L65
 226:lib/BTT/src/STFT.c ****         free(self->imag_2);
 677              		.loc 1 226 9 is_stmt 1 view .LVU225
 678 004a FFF7FEFF 		bl	free
 679              	.LVL58:
 680              	.L65:
 227:lib/BTT/src/STFT.c ****       free(self);
 681              		.loc 1 227 7 view .LVU226
 682 004e 2046     		mov	r0, r4
 683 0050 FFF7FEFF 		bl	free
 684              	.LVL59:
 685              	.L56:
 228:lib/BTT/src/STFT.c ****     }
 229:lib/BTT/src/STFT.c ****   return (TWO_STFTS*) NULL;
 686              		.loc 1 229 3 view .LVU227
 230:lib/BTT/src/STFT.c **** }
 687              		.loc 1 230 1 is_stmt 0 view .LVU228
 688 0054 0020     		movs	r0, #0
 689 0056 10BD     		pop	{r4, pc}
 690              		.loc 1 230 1 view .LVU229
 691              		.cfi_endproc
 692              	.LFE327:
 694              		.section	.text.two_stfts_new,"ax",%progbits
 695              		.align	1
 696              		.global	two_stfts_new
 697              		.syntax unified
 698              		.thumb
 699              		.thumb_func
 701              	two_stfts_new:
 702              	.LVL60:
 703              	.LFB326:
 163:lib/BTT/src/STFT.c ****   TWO_STFTS* self = calloc(1, sizeof(*self));
 704              		.loc 1 163 1 is_stmt 1 view -0
 705              		.cfi_startproc
 706              		@ args = 0, pretend = 0, frame = 16
 707              		@ frame_needed = 0, uses_anonymous_args = 0
 164:lib/BTT/src/STFT.c ****   if(self != NULL)
 708              		.loc 1 164 3 view .LVU231
 163:lib/BTT/src/STFT.c ****   TWO_STFTS* self = calloc(1, sizeof(*self));
 709              		.loc 1 163 1 is_stmt 0 view .LVU232
 710 0000 2DE9F04F 		push	{r4, r5, r6, r7, r8, r9, r10, fp, lr}
 711              		.cfi_def_cfa_offset 36
 712              		.cfi_offset 4, -36
 713              		.cfi_offset 5, -32
 714              		.cfi_offset 6, -28
 715              		.cfi_offset 7, -24
 716              		.cfi_offset 8, -20
 717              		.cfi_offset 9, -16
 718              		.cfi_offset 10, -12
 719              		.cfi_offset 11, -8
 720              		.cfi_offset 14, -4
ARM GAS  /var/folders/lw/_hmdf9396f92znj902yw3qj00000gn/T//ccOGyVsP.s 			page 20


 721 0004 0546     		mov	r5, r0
 722 0006 85B0     		sub	sp, sp, #20
 723              		.cfi_def_cfa_offset 56
 163:lib/BTT/src/STFT.c ****   TWO_STFTS* self = calloc(1, sizeof(*self));
 724              		.loc 1 163 1 view .LVU233
 725 0008 0F46     		mov	r7, r1
 164:lib/BTT/src/STFT.c ****   if(self != NULL)
 726              		.loc 1 164 21 view .LVU234
 727 000a 0120     		movs	r0, #1
 728              	.LVL61:
 164:lib/BTT/src/STFT.c ****   if(self != NULL)
 729              		.loc 1 164 21 view .LVU235
 730 000c 4421     		movs	r1, #68
 731              	.LVL62:
 163:lib/BTT/src/STFT.c ****   TWO_STFTS* self = calloc(1, sizeof(*self));
 732              		.loc 1 163 1 view .LVU236
 733 000e 1646     		mov	r6, r2
 164:lib/BTT/src/STFT.c ****   if(self != NULL)
 734              		.loc 1 164 21 view .LVU237
 735 0010 FFF7FEFF 		bl	calloc
 736              	.LVL63:
 165:lib/BTT/src/STFT.c ****     {
 737              		.loc 1 165 3 is_stmt 1 view .LVU238
 165:lib/BTT/src/STFT.c ****     {
 738              		.loc 1 165 5 is_stmt 0 view .LVU239
 739 0014 0446     		mov	r4, r0
 740 0016 0028     		cmp	r0, #0
 741 0018 67D0     		beq	.L96
 167:lib/BTT/src/STFT.c ****       self->window_size          = window_size;
 742              		.loc 1 167 7 is_stmt 1 view .LVU240
 168:lib/BTT/src/STFT.c ****       self->fft_N                = (should_resynthesize) ? overlap * window_size : window_size;
 743              		.loc 1 168 34 is_stmt 0 view .LVU241
 744 001a C0E90065 		strd	r6, r5, [r0]
 169:lib/BTT/src/STFT.c ****       self->overlap              = overlap;
 745              		.loc 1 169 7 is_stmt 1 view .LVU242
 169:lib/BTT/src/STFT.c ****       self->overlap              = overlap;
 746              		.loc 1 169 82 is_stmt 0 view .LVU243
 747 001e 002E     		cmp	r6, #0
 748 0020 48D0     		beq	.L108
 169:lib/BTT/src/STFT.c ****       self->overlap              = overlap;
 749              		.loc 1 169 82 discriminator 1 view .LVU244
 750 0022 07FB05F6 		mul	r6, r7, r5
 751              	.LVL64:
 752              	.L98:
 172:lib/BTT/src/STFT.c **** 
 753              		.loc 1 172 34 discriminator 4 view .LVU245
 754 0026 0023     		movs	r3, #0
 177:lib/BTT/src/STFT.c ****       self->running_input        = calloc(self->window_size, sizeof(*(self->running_input)));
 755              		.loc 1 177 36 discriminator 4 view .LVU246
 756 0028 0421     		movs	r1, #4
 757 002a 2846     		mov	r0, r5
 758              	.LVL65:
 175:lib/BTT/src/STFT.c **** 
 759              		.loc 1 175 34 discriminator 4 view .LVU247
 760 002c E361     		str	r3, [r4, #28]
 170:lib/BTT/src/STFT.c ****       self->hop_size             = window_size / overlap;
 761              		.loc 1 170 34 discriminator 4 view .LVU248
ARM GAS  /var/folders/lw/_hmdf9396f92znj902yw3qj00000gn/T//ccOGyVsP.s 			page 21


 762 002e C4E90267 		strd	r6, r7, [r4, #8]
 171:lib/BTT/src/STFT.c ****       self->sample_counter       = 0;
 763              		.loc 1 171 7 is_stmt 1 discriminator 4 view .LVU249
 171:lib/BTT/src/STFT.c ****       self->sample_counter       = 0;
 764              		.loc 1 171 48 is_stmt 0 discriminator 4 view .LVU250
 765 0032 95FBF7F7 		sdiv	r7, r5, r7
 766              	.LVL66:
 174:lib/BTT/src/STFT.c ****       self->output_index         = 0;
 767              		.loc 1 174 34 discriminator 4 view .LVU251
 768 0036 C4E90533 		strd	r3, r3, [r4, #20]
 171:lib/BTT/src/STFT.c ****       self->sample_counter       = 0;
 769              		.loc 1 171 34 discriminator 4 view .LVU252
 770 003a 2761     		str	r7, [r4, #16]
 172:lib/BTT/src/STFT.c **** 
 771              		.loc 1 172 7 is_stmt 1 discriminator 4 view .LVU253
 175:lib/BTT/src/STFT.c **** 
 772              		.loc 1 175 7 discriminator 4 view .LVU254
 177:lib/BTT/src/STFT.c ****       self->running_input        = calloc(self->window_size, sizeof(*(self->running_input)));
 773              		.loc 1 177 7 discriminator 4 view .LVU255
 177:lib/BTT/src/STFT.c ****       self->running_input        = calloc(self->window_size, sizeof(*(self->running_input)));
 774              		.loc 1 177 36 is_stmt 0 discriminator 4 view .LVU256
 775 003c FFF7FEFF 		bl	calloc
 776              	.LVL67:
 178:lib/BTT/src/STFT.c ****       self->running_output       = calloc(self->fft_N      , sizeof(*(self->running_output)));
 777              		.loc 1 178 36 discriminator 4 view .LVU257
 778 0040 0421     		movs	r1, #4
 177:lib/BTT/src/STFT.c ****       self->running_input        = calloc(self->window_size, sizeof(*(self->running_input)));
 779              		.loc 1 177 34 discriminator 4 view .LVU258
 780 0042 2062     		str	r0, [r4, #32]
 178:lib/BTT/src/STFT.c ****       self->running_output       = calloc(self->fft_N      , sizeof(*(self->running_output)));
 781              		.loc 1 178 7 is_stmt 1 discriminator 4 view .LVU259
 177:lib/BTT/src/STFT.c ****       self->running_input        = calloc(self->window_size, sizeof(*(self->running_input)));
 782              		.loc 1 177 36 is_stmt 0 discriminator 4 view .LVU260
 783 0044 0746     		mov	r7, r0
 178:lib/BTT/src/STFT.c ****       self->running_output       = calloc(self->fft_N      , sizeof(*(self->running_output)));
 784              		.loc 1 178 36 discriminator 4 view .LVU261
 785 0046 2846     		mov	r0, r5
 786 0048 FFF7FEFF 		bl	calloc
 787              	.LVL68:
 179:lib/BTT/src/STFT.c ****       self->real                 = calloc(self->fft_N      , sizeof(*(self->real)));
 788              		.loc 1 179 36 discriminator 4 view .LVU262
 789 004c 0421     		movs	r1, #4
 178:lib/BTT/src/STFT.c ****       self->running_output       = calloc(self->fft_N      , sizeof(*(self->running_output)));
 790              		.loc 1 178 34 discriminator 4 view .LVU263
 791 004e 6062     		str	r0, [r4, #36]
 792 0050 0390     		str	r0, [sp, #12]
 179:lib/BTT/src/STFT.c ****       self->real                 = calloc(self->fft_N      , sizeof(*(self->real)));
 793              		.loc 1 179 7 is_stmt 1 discriminator 4 view .LVU264
 179:lib/BTT/src/STFT.c ****       self->real                 = calloc(self->fft_N      , sizeof(*(self->real)));
 794              		.loc 1 179 36 is_stmt 0 discriminator 4 view .LVU265
 795 0052 3046     		mov	r0, r6
 796 0054 FFF7FEFF 		bl	calloc
 797              	.LVL69:
 180:lib/BTT/src/STFT.c ****       self->imag                 = calloc(self->fft_N      , sizeof(*(self->imag)));
 798              		.loc 1 180 36 discriminator 4 view .LVU266
 799 0058 0421     		movs	r1, #4
 179:lib/BTT/src/STFT.c ****       self->real                 = calloc(self->fft_N      , sizeof(*(self->real)));
ARM GAS  /var/folders/lw/_hmdf9396f92znj902yw3qj00000gn/T//ccOGyVsP.s 			page 22


 800              		.loc 1 179 34 discriminator 4 view .LVU267
 801 005a A062     		str	r0, [r4, #40]
 802 005c 0290     		str	r0, [sp, #8]
 180:lib/BTT/src/STFT.c ****       self->imag                 = calloc(self->fft_N      , sizeof(*(self->imag)));
 803              		.loc 1 180 7 is_stmt 1 discriminator 4 view .LVU268
 180:lib/BTT/src/STFT.c ****       self->imag                 = calloc(self->fft_N      , sizeof(*(self->imag)));
 804              		.loc 1 180 36 is_stmt 0 discriminator 4 view .LVU269
 805 005e 3046     		mov	r0, r6
 806 0060 FFF7FEFF 		bl	calloc
 807              	.LVL70:
 181:lib/BTT/src/STFT.c ****       self->running_input_2      = calloc(self->window_size, sizeof(*(self->running_input_2)));
 808              		.loc 1 181 36 discriminator 4 view .LVU270
 809 0064 0421     		movs	r1, #4
 180:lib/BTT/src/STFT.c ****       self->imag                 = calloc(self->fft_N      , sizeof(*(self->imag)));
 810              		.loc 1 180 34 discriminator 4 view .LVU271
 811 0066 E062     		str	r0, [r4, #44]
 181:lib/BTT/src/STFT.c ****       self->running_input_2      = calloc(self->window_size, sizeof(*(self->running_input_2)));
 812              		.loc 1 181 7 is_stmt 1 discriminator 4 view .LVU272
 180:lib/BTT/src/STFT.c ****       self->imag                 = calloc(self->fft_N      , sizeof(*(self->imag)));
 813              		.loc 1 180 36 is_stmt 0 discriminator 4 view .LVU273
 814 0068 8346     		mov	fp, r0
 181:lib/BTT/src/STFT.c ****       self->running_input_2      = calloc(self->window_size, sizeof(*(self->running_input_2)));
 815              		.loc 1 181 36 discriminator 4 view .LVU274
 816 006a 3046     		mov	r0, r6
 817 006c FFF7FEFF 		bl	calloc
 818              	.LVL71:
 182:lib/BTT/src/STFT.c ****       self->running_output_2     = calloc(self->fft_N      , sizeof(*(self->running_output_2)));
 819              		.loc 1 182 36 discriminator 4 view .LVU275
 820 0070 0421     		movs	r1, #4
 181:lib/BTT/src/STFT.c ****       self->running_input_2      = calloc(self->window_size, sizeof(*(self->running_input_2)));
 821              		.loc 1 181 34 discriminator 4 view .LVU276
 822 0072 2063     		str	r0, [r4, #48]
 182:lib/BTT/src/STFT.c ****       self->running_output_2     = calloc(self->fft_N      , sizeof(*(self->running_output_2)));
 823              		.loc 1 182 7 is_stmt 1 discriminator 4 view .LVU277
 181:lib/BTT/src/STFT.c ****       self->running_input_2      = calloc(self->window_size, sizeof(*(self->running_input_2)));
 824              		.loc 1 181 36 is_stmt 0 discriminator 4 view .LVU278
 825 0074 8246     		mov	r10, r0
 182:lib/BTT/src/STFT.c ****       self->running_output_2     = calloc(self->fft_N      , sizeof(*(self->running_output_2)));
 826              		.loc 1 182 36 discriminator 4 view .LVU279
 827 0076 2846     		mov	r0, r5
 828 0078 FFF7FEFF 		bl	calloc
 829              	.LVL72:
 183:lib/BTT/src/STFT.c ****       self->real_2               = calloc(self->fft_N      , sizeof(*(self->real_2)));
 830              		.loc 1 183 36 discriminator 4 view .LVU280
 831 007c 0421     		movs	r1, #4
 182:lib/BTT/src/STFT.c ****       self->running_output_2     = calloc(self->fft_N      , sizeof(*(self->running_output_2)));
 832              		.loc 1 182 34 discriminator 4 view .LVU281
 833 007e 6063     		str	r0, [r4, #52]
 183:lib/BTT/src/STFT.c ****       self->real_2               = calloc(self->fft_N      , sizeof(*(self->real_2)));
 834              		.loc 1 183 7 is_stmt 1 discriminator 4 view .LVU282
 182:lib/BTT/src/STFT.c ****       self->running_output_2     = calloc(self->fft_N      , sizeof(*(self->running_output_2)));
 835              		.loc 1 182 36 is_stmt 0 discriminator 4 view .LVU283
 836 0080 8146     		mov	r9, r0
 183:lib/BTT/src/STFT.c ****       self->real_2               = calloc(self->fft_N      , sizeof(*(self->real_2)));
 837              		.loc 1 183 36 discriminator 4 view .LVU284
 838 0082 3046     		mov	r0, r6
 839 0084 FFF7FEFF 		bl	calloc
ARM GAS  /var/folders/lw/_hmdf9396f92znj902yw3qj00000gn/T//ccOGyVsP.s 			page 23


 840              	.LVL73:
 184:lib/BTT/src/STFT.c ****       self->imag_2               = calloc(self->fft_N      , sizeof(*(self->imag_2)));
 841              		.loc 1 184 36 discriminator 4 view .LVU285
 842 0088 0421     		movs	r1, #4
 183:lib/BTT/src/STFT.c ****       self->real_2               = calloc(self->fft_N      , sizeof(*(self->real_2)));
 843              		.loc 1 183 34 discriminator 4 view .LVU286
 844 008a A063     		str	r0, [r4, #56]
 184:lib/BTT/src/STFT.c ****       self->imag_2               = calloc(self->fft_N      , sizeof(*(self->imag_2)));
 845              		.loc 1 184 7 is_stmt 1 discriminator 4 view .LVU287
 183:lib/BTT/src/STFT.c ****       self->real_2               = calloc(self->fft_N      , sizeof(*(self->real_2)));
 846              		.loc 1 183 36 is_stmt 0 discriminator 4 view .LVU288
 847 008c 8046     		mov	r8, r0
 184:lib/BTT/src/STFT.c ****       self->imag_2               = calloc(self->fft_N      , sizeof(*(self->imag_2)));
 848              		.loc 1 184 36 discriminator 4 view .LVU289
 849 008e 3046     		mov	r0, r6
 850 0090 FFF7FEFF 		bl	calloc
 851              	.LVL74:
 185:lib/BTT/src/STFT.c **** 
 852              		.loc 1 185 36 discriminator 4 view .LVU290
 853 0094 0421     		movs	r1, #4
 184:lib/BTT/src/STFT.c ****       self->imag_2               = calloc(self->fft_N      , sizeof(*(self->imag_2)));
 854              		.loc 1 184 36 discriminator 4 view .LVU291
 855 0096 0190     		str	r0, [sp, #4]
 184:lib/BTT/src/STFT.c ****       self->imag_2               = calloc(self->fft_N      , sizeof(*(self->imag_2)));
 856              		.loc 1 184 34 discriminator 4 view .LVU292
 857 0098 E063     		str	r0, [r4, #60]
 185:lib/BTT/src/STFT.c **** 
 858              		.loc 1 185 7 is_stmt 1 discriminator 4 view .LVU293
 185:lib/BTT/src/STFT.c **** 
 859              		.loc 1 185 36 is_stmt 0 discriminator 4 view .LVU294
 860 009a 3046     		mov	r0, r6
 861 009c FFF7FEFF 		bl	calloc
 862              	.LVL75:
 185:lib/BTT/src/STFT.c **** 
 863              		.loc 1 185 34 discriminator 4 view .LVU295
 864 00a0 2064     		str	r0, [r4, #64]
 187:lib/BTT/src/STFT.c ****       if(self->running_input    == NULL) return two_stfts_destroy(self);
 865              		.loc 1 187 7 is_stmt 1 discriminator 4 view .LVU296
 187:lib/BTT/src/STFT.c ****       if(self->running_input    == NULL) return two_stfts_destroy(self);
 866              		.loc 1 187 9 is_stmt 0 discriminator 4 view .LVU297
 867 00a2 DDE90232 		ldrd	r3, r2, [sp, #8]
 868 00a6 3FB9     		cbnz	r7, .L99
 869              	.L112:
 195:lib/BTT/src/STFT.c **** 
 870              		.loc 1 195 42 is_stmt 1 discriminator 1 view .LVU298
 195:lib/BTT/src/STFT.c **** 
 871              		.loc 1 195 49 is_stmt 0 discriminator 1 view .LVU299
 872 00a8 2046     		mov	r0, r4
 202:lib/BTT/src/STFT.c **** 
 873              		.loc 1 202 1 discriminator 1 view .LVU300
 874 00aa 05B0     		add	sp, sp, #20
 875              		.cfi_remember_state
 876              		.cfi_def_cfa_offset 36
 877              		@ sp needed
 878 00ac BDE8F04F 		pop	{r4, r5, r6, r7, r8, r9, r10, fp, lr}
 879              		.cfi_restore 14
 880              		.cfi_restore 11
ARM GAS  /var/folders/lw/_hmdf9396f92znj902yw3qj00000gn/T//ccOGyVsP.s 			page 24


 881              		.cfi_restore 10
 882              		.cfi_restore 9
 883              		.cfi_restore 8
 884              		.cfi_restore 7
 885              		.cfi_restore 6
 886              		.cfi_restore 5
 887              		.cfi_restore 4
 888              		.cfi_def_cfa_offset 0
 889              	.LVL76:
 195:lib/BTT/src/STFT.c **** 
 890              		.loc 1 195 49 discriminator 1 view .LVU301
 891 00b0 FFF7FEBF 		b	two_stfts_destroy
 892              	.LVL77:
 893              	.L108:
 894              		.cfi_restore_state
 169:lib/BTT/src/STFT.c ****       self->overlap              = overlap;
 895              		.loc 1 169 82 view .LVU302
 896 00b4 2E46     		mov	r6, r5
 897              	.LVL78:
 169:lib/BTT/src/STFT.c ****       self->overlap              = overlap;
 898              		.loc 1 169 82 view .LVU303
 899 00b6 B6E7     		b	.L98
 900              	.LVL79:
 901              	.L99:
 188:lib/BTT/src/STFT.c ****       if(self->running_output   == NULL) return two_stfts_destroy(self);
 902              		.loc 1 188 7 is_stmt 1 view .LVU304
 188:lib/BTT/src/STFT.c ****       if(self->running_output   == NULL) return two_stfts_destroy(self);
 903              		.loc 1 188 9 is_stmt 0 view .LVU305
 904 00b8 002A     		cmp	r2, #0
 905 00ba F5D0     		beq	.L112
 189:lib/BTT/src/STFT.c ****       if(self->real             == NULL) return two_stfts_destroy(self);
 906              		.loc 1 189 7 is_stmt 1 view .LVU306
 189:lib/BTT/src/STFT.c ****       if(self->real             == NULL) return two_stfts_destroy(self);
 907              		.loc 1 189 9 is_stmt 0 view .LVU307
 908 00bc 002B     		cmp	r3, #0
 909 00be F3D0     		beq	.L112
 190:lib/BTT/src/STFT.c ****       if(self->imag             == NULL) return two_stfts_destroy(self);
 910              		.loc 1 190 7 is_stmt 1 view .LVU308
 190:lib/BTT/src/STFT.c ****       if(self->imag             == NULL) return two_stfts_destroy(self);
 911              		.loc 1 190 9 is_stmt 0 view .LVU309
 912 00c0 BBF1000F 		cmp	fp, #0
 913 00c4 F0D0     		beq	.L112
 191:lib/BTT/src/STFT.c ****       if(self->running_input_2  == NULL) return two_stfts_destroy(self);
 914              		.loc 1 191 7 is_stmt 1 view .LVU310
 191:lib/BTT/src/STFT.c ****       if(self->running_input_2  == NULL) return two_stfts_destroy(self);
 915              		.loc 1 191 9 is_stmt 0 view .LVU311
 916 00c6 BAF1000F 		cmp	r10, #0
 917 00ca EDD0     		beq	.L112
 192:lib/BTT/src/STFT.c ****       if(self->running_output_2 == NULL) return two_stfts_destroy(self);
 918              		.loc 1 192 7 is_stmt 1 view .LVU312
 192:lib/BTT/src/STFT.c ****       if(self->running_output_2 == NULL) return two_stfts_destroy(self);
 919              		.loc 1 192 9 is_stmt 0 view .LVU313
 920 00cc B9F1000F 		cmp	r9, #0
 921 00d0 EAD0     		beq	.L112
 193:lib/BTT/src/STFT.c ****       if(self->real_2           == NULL) return two_stfts_destroy(self);
 922              		.loc 1 193 7 is_stmt 1 view .LVU314
 193:lib/BTT/src/STFT.c ****       if(self->real_2           == NULL) return two_stfts_destroy(self);
ARM GAS  /var/folders/lw/_hmdf9396f92znj902yw3qj00000gn/T//ccOGyVsP.s 			page 25


 923              		.loc 1 193 9 is_stmt 0 view .LVU315
 924 00d2 B8F1000F 		cmp	r8, #0
 925 00d6 E7D0     		beq	.L112
 194:lib/BTT/src/STFT.c ****       if(self->imag_2           == NULL) return two_stfts_destroy(self);
 926              		.loc 1 194 7 is_stmt 1 view .LVU316
 194:lib/BTT/src/STFT.c ****       if(self->imag_2           == NULL) return two_stfts_destroy(self);
 927              		.loc 1 194 9 is_stmt 0 view .LVU317
 928 00d8 019B     		ldr	r3, [sp, #4]
 929 00da 002B     		cmp	r3, #0
 930 00dc E4D0     		beq	.L112
 195:lib/BTT/src/STFT.c **** 
 931              		.loc 1 195 7 is_stmt 1 view .LVU318
 195:lib/BTT/src/STFT.c **** 
 932              		.loc 1 195 9 is_stmt 0 view .LVU319
 933 00de 0028     		cmp	r0, #0
 934 00e0 E2D0     		beq	.L112
 198:lib/BTT/src/STFT.c ****   }
 935              		.loc 1 198 7 is_stmt 1 view .LVU320
 936 00e2 2946     		mov	r1, r5
 937 00e4 3846     		mov	r0, r7
 938 00e6 FFF7FEFF 		bl	dft_init_blackman_window
 939              	.LVL80:
 940              	.L96:
 202:lib/BTT/src/STFT.c **** 
 941              		.loc 1 202 1 is_stmt 0 view .LVU321
 942 00ea 2046     		mov	r0, r4
 943 00ec 05B0     		add	sp, sp, #20
 944              		.cfi_def_cfa_offset 36
 945              		@ sp needed
 946 00ee BDE8F08F 		pop	{r4, r5, r6, r7, r8, r9, r10, fp, pc}
 202:lib/BTT/src/STFT.c **** 
 947              		.loc 1 202 1 view .LVU322
 948              		.cfi_endproc
 949              	.LFE326:
 951              		.section	.text.two_stfts_process,"ax",%progbits
 952              		.align	1
 953              		.global	two_stfts_process
 954              		.syntax unified
 955              		.thumb
 956              		.thumb_func
 958              	two_stfts_process:
 959              	.LVL81:
 960              	.LFB328:
 231:lib/BTT/src/STFT.c **** 
 232:lib/BTT/src/STFT.c **** /*--------------------------------------------------------------------*/
 233:lib/BTT/src/STFT.c **** void two_stfts_process(TWO_STFTS* self, dft_sample_t* real_input, dft_sample_t* real_input_2, int l
 234:lib/BTT/src/STFT.c **** {
 961              		.loc 1 234 1 is_stmt 1 view -0
 962              		.cfi_startproc
 963              		@ args = 12, pretend = 0, frame = 0
 964              		@ frame_needed = 0, uses_anonymous_args = 0
 235:lib/BTT/src/STFT.c ****   int i, j;
 965              		.loc 1 235 3 view .LVU324
 236:lib/BTT/src/STFT.c **** 
 237:lib/BTT/src/STFT.c ****   for(i=0; i<len; i++)
 966              		.loc 1 237 3 view .LVU325
 234:lib/BTT/src/STFT.c ****   int i, j;
ARM GAS  /var/folders/lw/_hmdf9396f92znj902yw3qj00000gn/T//ccOGyVsP.s 			page 26


 967              		.loc 1 234 1 is_stmt 0 view .LVU326
 968 0000 2DE9F04F 		push	{r4, r5, r6, r7, r8, r9, r10, fp, lr}
 969              		.cfi_def_cfa_offset 36
 970              		.cfi_offset 4, -36
 971              		.cfi_offset 5, -32
 972              		.cfi_offset 6, -28
 973              		.cfi_offset 7, -24
 974              		.cfi_offset 8, -20
 975              		.cfi_offset 9, -16
 976              		.cfi_offset 10, -12
 977              		.cfi_offset 11, -8
 978              		.cfi_offset 14, -4
 979              		.loc 1 237 8 view .LVU327
 980 0004 0026     		movs	r6, #0
 234:lib/BTT/src/STFT.c ****   int i, j;
 981              		.loc 1 234 1 view .LVU328
 982 0006 0446     		mov	r4, r0
 983 0008 9A46     		mov	r10, r3
 984 000a 8846     		mov	r8, r1
 985 000c 1546     		mov	r5, r2
 238:lib/BTT/src/STFT.c ****     {
 239:lib/BTT/src/STFT.c ****       self->running_input[self->input_index] = real_input[i];
 240:lib/BTT/src/STFT.c ****       self->running_input_2[self->input_index] = real_input_2[i];
 241:lib/BTT/src/STFT.c ****       ++self->input_index; self->input_index %= self->window_size;
 242:lib/BTT/src/STFT.c ****     
 243:lib/BTT/src/STFT.c ****       //?
 244:lib/BTT/src/STFT.c ****       if(self->should_resynthesize)
 245:lib/BTT/src/STFT.c ****         {
 246:lib/BTT/src/STFT.c ****           real_input[i] = self->running_output[self->output_index];
 247:lib/BTT/src/STFT.c ****           self->running_output[self->output_index] = 0;
 248:lib/BTT/src/STFT.c ****           if(two_inverses)
 249:lib/BTT/src/STFT.c ****             {
 250:lib/BTT/src/STFT.c ****               real_input_2[i] = self->running_output_2[self->output_index];
 251:lib/BTT/src/STFT.c ****               self->running_output_2[self->output_index] = 0;
 252:lib/BTT/src/STFT.c ****             }
 253:lib/BTT/src/STFT.c ****           ++self->output_index; self->output_index %= self->fft_N;
 254:lib/BTT/src/STFT.c ****         }
 255:lib/BTT/src/STFT.c **** 
 256:lib/BTT/src/STFT.c ****       ++self->sample_counter;
 257:lib/BTT/src/STFT.c **** 
 258:lib/BTT/src/STFT.c ****       //new dft if necessary
 259:lib/BTT/src/STFT.c ****       if(self->sample_counter == self->hop_size)
 260:lib/BTT/src/STFT.c ****         {
 261:lib/BTT/src/STFT.c ****           self->sample_counter = 0;
 986              		.loc 1 261 32 view .LVU329
 987 000e B146     		mov	r9, r6
 234:lib/BTT/src/STFT.c ****   int i, j;
 988              		.loc 1 234 1 view .LVU330
 989 0010 2DED028B 		vpush.64	{d8}
 990              		.cfi_def_cfa_offset 44
 991              		.cfi_offset 80, -44
 992              		.cfi_offset 81, -40
 247:lib/BTT/src/STFT.c ****           if(two_inverses)
 993              		.loc 1 247 52 view .LVU331
 994 0014 9FED6F8A 		vldr.32	s16, .L141
 234:lib/BTT/src/STFT.c ****   int i, j;
 995              		.loc 1 234 1 view .LVU332
ARM GAS  /var/folders/lw/_hmdf9396f92znj902yw3qj00000gn/T//ccOGyVsP.s 			page 27


 996 0018 83B0     		sub	sp, sp, #12
 997              		.cfi_def_cfa_offset 56
 998              	.LVL82:
 999              	.L114:
 237:lib/BTT/src/STFT.c ****     {
 1000              		.loc 1 237 12 is_stmt 1 discriminator 1 view .LVU333
 237:lib/BTT/src/STFT.c ****     {
 1001              		.loc 1 237 3 is_stmt 0 discriminator 1 view .LVU334
 1002 001a 5645     		cmp	r6, r10
 1003 001c 04DB     		blt	.L128
 262:lib/BTT/src/STFT.c ****         
 263:lib/BTT/src/STFT.c ****           for(j=0; j<self->window_size; j++)
 264:lib/BTT/src/STFT.c ****             {
 265:lib/BTT/src/STFT.c ****               self->real[j] = self->running_input[(self->input_index+j) % self->window_size];
 266:lib/BTT/src/STFT.c ****               self->imag[j] = 0;
 267:lib/BTT/src/STFT.c ****               self->real_2[j] = self->running_input_2[(self->input_index+j) % self->window_size];
 268:lib/BTT/src/STFT.c ****               self->imag_2[j] = 0;
 269:lib/BTT/src/STFT.c ****             }
 270:lib/BTT/src/STFT.c **** 
 271:lib/BTT/src/STFT.c ****           dft_apply_window(self->real, self->window, self->window_size);
 272:lib/BTT/src/STFT.c ****           dft_apply_window(self->real_2, self->window, self->window_size);
 273:lib/BTT/src/STFT.c ****           for(j=self->window_size; j<self->fft_N; j++)
 274:lib/BTT/src/STFT.c ****             {
 275:lib/BTT/src/STFT.c ****               self->real[j] = 0;
 276:lib/BTT/src/STFT.c ****               self->imag[j] = 0;
 277:lib/BTT/src/STFT.c ****               self->real_2[j] = 0;
 278:lib/BTT/src/STFT.c ****               self->imag_2[j] = 0;
 279:lib/BTT/src/STFT.c ****             }
 280:lib/BTT/src/STFT.c **** 
 281:lib/BTT/src/STFT.c ****           dft_2_real_forward_dfts  (self->real, self->real_2, self->imag, self->imag_2, self->fft_N
 282:lib/BTT/src/STFT.c ****           onprocess                  (onprocess_self, self->real, self->real_2, self->imag, self->i
 283:lib/BTT/src/STFT.c **** 
 284:lib/BTT/src/STFT.c ****           if(self->should_resynthesize)
 285:lib/BTT/src/STFT.c ****             {
 286:lib/BTT/src/STFT.c ****               if(two_inverses)
 287:lib/BTT/src/STFT.c ****                 dft_2_real_inverse_dfts(self->real, self->real_2, self->imag, self->imag_2, self->f
 288:lib/BTT/src/STFT.c ****               else
 289:lib/BTT/src/STFT.c ****                 dft_real_inverse_dft(self->real, self->imag, self->fft_N);
 290:lib/BTT/src/STFT.c ****         
 291:lib/BTT/src/STFT.c ****               for(j=0; j<self->fft_N; j++)
 292:lib/BTT/src/STFT.c ****                 {
 293:lib/BTT/src/STFT.c ****                   self->running_output[(self->output_index+j) % self->fft_N] += self->real[j];
 294:lib/BTT/src/STFT.c ****                   if(two_inverses)
 295:lib/BTT/src/STFT.c ****                     self->running_output_2[(self->output_index+j) % self->fft_N] += self->real_2[j]
 296:lib/BTT/src/STFT.c ****                 }
 297:lib/BTT/src/STFT.c ****             }
 298:lib/BTT/src/STFT.c ****         }
 299:lib/BTT/src/STFT.c ****     }
 300:lib/BTT/src/STFT.c **** }
 1004              		.loc 1 300 1 view .LVU335
 1005 001e 03B0     		add	sp, sp, #12
 1006              		.cfi_remember_state
 1007              		.cfi_def_cfa_offset 44
 1008              		@ sp needed
 1009 0020 BDEC028B 		vldm	sp!, {d8}
 1010              		.cfi_restore 80
 1011              		.cfi_restore 81
ARM GAS  /var/folders/lw/_hmdf9396f92znj902yw3qj00000gn/T//ccOGyVsP.s 			page 28


 1012              		.cfi_def_cfa_offset 36
 1013 0024 BDE8F08F 		pop	{r4, r5, r6, r7, r8, r9, r10, fp, pc}
 1014              	.LVL83:
 1015              	.L128:
 1016              		.cfi_restore_state
 239:lib/BTT/src/STFT.c ****       self->running_input_2[self->input_index] = real_input_2[i];
 1017              		.loc 1 239 7 is_stmt 1 view .LVU336
 239:lib/BTT/src/STFT.c ****       self->running_input_2[self->input_index] = real_input_2[i];
 1018              		.loc 1 239 31 is_stmt 0 view .LVU337
 1019 0028 A369     		ldr	r3, [r4, #24]
 239:lib/BTT/src/STFT.c ****       self->running_input_2[self->input_index] = real_input_2[i];
 1020              		.loc 1 239 11 view .LVU338
 1021 002a 676A     		ldr	r7, [r4, #36]
 239:lib/BTT/src/STFT.c ****       self->running_input_2[self->input_index] = real_input_2[i];
 1022              		.loc 1 239 58 view .LVU339
 1023 002c 58F8041B 		ldr	r1, [r8], #4	@ float
 239:lib/BTT/src/STFT.c ****       self->running_input_2[self->input_index] = real_input_2[i];
 1024              		.loc 1 239 46 view .LVU340
 1025 0030 07EB8302 		add	r2, r7, r3, lsl #2
 240:lib/BTT/src/STFT.c ****       ++self->input_index; self->input_index %= self->window_size;
 1026              		.loc 1 240 11 view .LVU341
 1027 0034 D4F834C0 		ldr	ip, [r4, #52]
 239:lib/BTT/src/STFT.c ****       self->running_input_2[self->input_index] = real_input_2[i];
 1028              		.loc 1 239 46 view .LVU342
 1029 0038 1160     		str	r1, [r2]	@ float
 240:lib/BTT/src/STFT.c ****       ++self->input_index; self->input_index %= self->window_size;
 1030              		.loc 1 240 7 is_stmt 1 view .LVU343
 240:lib/BTT/src/STFT.c ****       ++self->input_index; self->input_index %= self->window_size;
 1031              		.loc 1 240 48 is_stmt 0 view .LVU344
 1032 003a 0CEB8302 		add	r2, ip, r3, lsl #2
 240:lib/BTT/src/STFT.c ****       ++self->input_index; self->input_index %= self->window_size;
 1033              		.loc 1 240 62 view .LVU345
 1034 003e 55F8041B 		ldr	r1, [r5], #4	@ float
 241:lib/BTT/src/STFT.c ****     
 1035              		.loc 1 241 7 view .LVU346
 1036 0042 0133     		adds	r3, r3, #1
 240:lib/BTT/src/STFT.c ****       ++self->input_index; self->input_index %= self->window_size;
 1037              		.loc 1 240 48 view .LVU347
 1038 0044 1160     		str	r1, [r2]	@ float
 241:lib/BTT/src/STFT.c ****     
 1039              		.loc 1 241 7 is_stmt 1 view .LVU348
 241:lib/BTT/src/STFT.c ****     
 1040              		.loc 1 241 28 view .LVU349
 241:lib/BTT/src/STFT.c ****     
 1041              		.loc 1 241 53 is_stmt 0 view .LVU350
 1042 0046 6268     		ldr	r2, [r4, #4]
 241:lib/BTT/src/STFT.c ****     
 1043              		.loc 1 241 46 view .LVU351
 1044 0048 93FBF2F1 		sdiv	r1, r3, r2
 1045 004c 02FB1133 		mls	r3, r2, r1, r3
 244:lib/BTT/src/STFT.c ****         {
 1046              		.loc 1 244 9 view .LVU352
 1047 0050 2168     		ldr	r1, [r4]
 241:lib/BTT/src/STFT.c ****     
 1048              		.loc 1 241 46 view .LVU353
 1049 0052 A361     		str	r3, [r4, #24]
 244:lib/BTT/src/STFT.c ****         {
ARM GAS  /var/folders/lw/_hmdf9396f92znj902yw3qj00000gn/T//ccOGyVsP.s 			page 29


 1050              		.loc 1 244 7 is_stmt 1 view .LVU354
 244:lib/BTT/src/STFT.c ****         {
 1051              		.loc 1 244 9 is_stmt 0 view .LVU355
 1052 0054 E1B1     		cbz	r1, .L115
 246:lib/BTT/src/STFT.c ****           self->running_output[self->output_index] = 0;
 1053              		.loc 1 246 11 is_stmt 1 view .LVU356
 246:lib/BTT/src/STFT.c ****           self->running_output[self->output_index] = 0;
 1054              		.loc 1 246 52 is_stmt 0 view .LVU357
 1055 0056 E069     		ldr	r0, [r4, #28]
 246:lib/BTT/src/STFT.c ****           self->running_output[self->output_index] = 0;
 1056              		.loc 1 246 47 view .LVU358
 1057 0058 A16A     		ldr	r1, [r4, #40]
 1058 005a 4FEA800E 		lsl	lr, r0, #2
 1059 005e 01EB8001 		add	r1, r1, r0, lsl #2
 1060 0062 D1F800B0 		ldr	fp, [r1]	@ float
 246:lib/BTT/src/STFT.c ****           self->running_output[self->output_index] = 0;
 1061              		.loc 1 246 25 view .LVU359
 1062 0066 48F804BC 		str	fp, [r8, #-4]	@ float
 247:lib/BTT/src/STFT.c ****           if(two_inverses)
 1063              		.loc 1 247 11 is_stmt 1 view .LVU360
 247:lib/BTT/src/STFT.c ****           if(two_inverses)
 1064              		.loc 1 247 52 is_stmt 0 view .LVU361
 1065 006a 81ED008A 		vstr.32	s16, [r1]
 248:lib/BTT/src/STFT.c ****             {
 1066              		.loc 1 248 11 is_stmt 1 view .LVU362
 248:lib/BTT/src/STFT.c ****             {
 1067              		.loc 1 248 13 is_stmt 0 view .LVU363
 1068 006e 0E99     		ldr	r1, [sp, #56]
 1069 0070 39B1     		cbz	r1, .L116
 250:lib/BTT/src/STFT.c ****               self->running_output_2[self->output_index] = 0;
 1070              		.loc 1 250 15 is_stmt 1 view .LVU364
 250:lib/BTT/src/STFT.c ****               self->running_output_2[self->output_index] = 0;
 1071              		.loc 1 250 55 is_stmt 0 view .LVU365
 1072 0072 A16B     		ldr	r1, [r4, #56]
 1073 0074 7144     		add	r1, r1, lr
 1074 0076 D1F800E0 		ldr	lr, [r1]	@ float
 250:lib/BTT/src/STFT.c ****               self->running_output_2[self->output_index] = 0;
 1075              		.loc 1 250 31 view .LVU366
 1076 007a 45F804EC 		str	lr, [r5, #-4]	@ float
 251:lib/BTT/src/STFT.c ****             }
 1077              		.loc 1 251 15 is_stmt 1 view .LVU367
 251:lib/BTT/src/STFT.c ****             }
 1078              		.loc 1 251 58 is_stmt 0 view .LVU368
 1079 007e 81ED008A 		vstr.32	s16, [r1]
 1080              	.L116:
 253:lib/BTT/src/STFT.c ****         }
 1081              		.loc 1 253 11 is_stmt 1 view .LVU369
 253:lib/BTT/src/STFT.c ****         }
 1082              		.loc 1 253 33 view .LVU370
 253:lib/BTT/src/STFT.c ****         }
 1083              		.loc 1 253 11 is_stmt 0 view .LVU371
 1084 0082 0130     		adds	r0, r0, #1
 253:lib/BTT/src/STFT.c ****         }
 1085              		.loc 1 253 52 view .LVU372
 1086 0084 A168     		ldr	r1, [r4, #8]
 1087 0086 90FBF1FE 		sdiv	lr, r0, r1
 1088 008a 01FB1E00 		mls	r0, r1, lr, r0
ARM GAS  /var/folders/lw/_hmdf9396f92znj902yw3qj00000gn/T//ccOGyVsP.s 			page 30


 1089 008e E061     		str	r0, [r4, #28]
 1090              	.L115:
 256:lib/BTT/src/STFT.c **** 
 1091              		.loc 1 256 7 is_stmt 1 view .LVU373
 1092 0090 6169     		ldr	r1, [r4, #20]
 259:lib/BTT/src/STFT.c ****         {
 1093              		.loc 1 259 9 is_stmt 0 view .LVU374
 1094 0092 2069     		ldr	r0, [r4, #16]
 256:lib/BTT/src/STFT.c **** 
 1095              		.loc 1 256 7 view .LVU375
 1096 0094 0131     		adds	r1, r1, #1
 259:lib/BTT/src/STFT.c ****         {
 1097              		.loc 1 259 9 view .LVU376
 1098 0096 8142     		cmp	r1, r0
 256:lib/BTT/src/STFT.c **** 
 1099              		.loc 1 256 7 view .LVU377
 1100 0098 6161     		str	r1, [r4, #20]
 259:lib/BTT/src/STFT.c ****         {
 1101              		.loc 1 259 7 is_stmt 1 view .LVU378
 259:lib/BTT/src/STFT.c ****         {
 1102              		.loc 1 259 9 is_stmt 0 view .LVU379
 1103 009a 01D0     		beq	.L117
 1104              	.L122:
 237:lib/BTT/src/STFT.c ****     {
 1105              		.loc 1 237 19 is_stmt 1 view .LVU380
 237:lib/BTT/src/STFT.c ****     {
 1106              		.loc 1 237 20 is_stmt 0 view .LVU381
 1107 009c 0136     		adds	r6, r6, #1
 1108              	.LVL84:
 237:lib/BTT/src/STFT.c ****     {
 1109              		.loc 1 237 20 view .LVU382
 1110 009e BCE7     		b	.L114
 1111              	.L117:
 261:lib/BTT/src/STFT.c ****         
 1112              		.loc 1 261 11 is_stmt 1 view .LVU383
 265:lib/BTT/src/STFT.c ****               self->imag[j] = 0;
 1113              		.loc 1 265 19 is_stmt 0 view .LVU384
 1114 00a0 E06A     		ldr	r0, [r4, #44]
 263:lib/BTT/src/STFT.c ****             {
 1115              		.loc 1 263 16 view .LVU385
 1116 00a2 4FF0000E 		mov	lr, #0
 261:lib/BTT/src/STFT.c ****         
 1117              		.loc 1 261 32 view .LVU386
 1118 00a6 C4F81490 		str	r9, [r4, #20]
 263:lib/BTT/src/STFT.c ****             {
 1119              		.loc 1 263 11 is_stmt 1 view .LVU387
 1120              	.LVL85:
 1121              	.L118:
 263:lib/BTT/src/STFT.c ****             {
 1122              		.loc 1 263 20 discriminator 1 view .LVU388
 263:lib/BTT/src/STFT.c ****             {
 1123              		.loc 1 263 11 is_stmt 0 discriminator 1 view .LVU389
 1124 00aa 7245     		cmp	r2, lr
 1125 00ac 58DC     		bgt	.L119
 271:lib/BTT/src/STFT.c ****           dft_apply_window(self->real_2, self->window, self->window_size);
 1126              		.loc 1 271 11 is_stmt 1 view .LVU390
 1127 00ae 216A     		ldr	r1, [r4, #32]
ARM GAS  /var/folders/lw/_hmdf9396f92znj902yw3qj00000gn/T//ccOGyVsP.s 			page 31


 1128 00b0 FFF7FEFF 		bl	dft_apply_window
 1129              	.LVL86:
 272:lib/BTT/src/STFT.c ****           for(j=self->window_size; j<self->fft_N; j++)
 1130              		.loc 1 272 11 view .LVU391
 1131 00b4 6268     		ldr	r2, [r4, #4]
 1132 00b6 216A     		ldr	r1, [r4, #32]
 1133 00b8 E06B     		ldr	r0, [r4, #60]
 1134 00ba FFF7FEFF 		bl	dft_apply_window
 1135              	.LVL87:
 273:lib/BTT/src/STFT.c ****             {
 1136              		.loc 1 273 11 view .LVU392
 273:lib/BTT/src/STFT.c ****             {
 1137              		.loc 1 273 42 is_stmt 0 view .LVU393
 1138 00be D4E9017C 		ldrd	r7, ip, [r4, #4]
 276:lib/BTT/src/STFT.c ****               self->real_2[j] = 0;
 1139              		.loc 1 276 19 view .LVU394
 1140 00c2 D4E90B02 		ldrd	r0, r2, [r4, #44]
 278:lib/BTT/src/STFT.c ****             }
 1141              		.loc 1 278 19 view .LVU395
 1142 00c6 D4E90F13 		ldrd	r1, r3, [r4, #60]
 1143              	.L120:
 1144              	.LVL88:
 273:lib/BTT/src/STFT.c ****             {
 1145              		.loc 1 273 36 is_stmt 1 discriminator 1 view .LVU396
 273:lib/BTT/src/STFT.c ****             {
 1146              		.loc 1 273 11 is_stmt 0 discriminator 1 view .LVU397
 1147 00ca BC45     		cmp	ip, r7
 1148 00cc 6CDC     		bgt	.L121
 281:lib/BTT/src/STFT.c ****           onprocess                  (onprocess_self, self->real, self->real_2, self->imag, self->i
 1149              		.loc 1 281 11 is_stmt 1 view .LVU398
 1150 00ce CDF800C0 		str	ip, [sp]
 1151 00d2 FFF7FEFF 		bl	dft_2_real_forward_dfts
 1152              	.LVL89:
 282:lib/BTT/src/STFT.c **** 
 1153              		.loc 1 282 11 view .LVU399
 1154 00d6 A368     		ldr	r3, [r4, #8]
 1155 00d8 E26B     		ldr	r2, [r4, #60]
 1156 00da 0193     		str	r3, [sp, #4]
 1157 00dc 236C     		ldr	r3, [r4, #64]
 1158 00de E16A     		ldr	r1, [r4, #44]
 1159 00e0 0093     		str	r3, [sp]
 1160 00e2 236B     		ldr	r3, [r4, #48]
 1161 00e4 DDE90F70 		ldrd	r7, r0, [sp, #60]
 1162              	.LVL90:
 282:lib/BTT/src/STFT.c **** 
 1163              		.loc 1 282 11 is_stmt 0 view .LVU400
 1164 00e8 B847     		blx	r7
 1165              	.LVL91:
 284:lib/BTT/src/STFT.c ****             {
 1166              		.loc 1 284 11 is_stmt 1 view .LVU401
 284:lib/BTT/src/STFT.c ****             {
 1167              		.loc 1 284 13 is_stmt 0 view .LVU402
 1168 00ea 2368     		ldr	r3, [r4]
 1169 00ec 002B     		cmp	r3, #0
 1170 00ee D5D0     		beq	.L122
 286:lib/BTT/src/STFT.c ****                 dft_2_real_inverse_dfts(self->real, self->real_2, self->imag, self->imag_2, self->f
 1171              		.loc 1 286 15 is_stmt 1 view .LVU403
ARM GAS  /var/folders/lw/_hmdf9396f92znj902yw3qj00000gn/T//ccOGyVsP.s 			page 32


 286:lib/BTT/src/STFT.c ****                 dft_2_real_inverse_dfts(self->real, self->real_2, self->imag, self->imag_2, self->f
 1172              		.loc 1 286 17 is_stmt 0 view .LVU404
 1173 00f0 0E9B     		ldr	r3, [sp, #56]
 287:lib/BTT/src/STFT.c ****               else
 1174              		.loc 1 287 17 view .LVU405
 1175 00f2 A268     		ldr	r2, [r4, #8]
 1176 00f4 D4E90B01 		ldrd	r0, r1, [r4, #44]
 286:lib/BTT/src/STFT.c ****                 dft_2_real_inverse_dfts(self->real, self->real_2, self->imag, self->imag_2, self->f
 1177              		.loc 1 286 17 view .LVU406
 1178 00f8 002B     		cmp	r3, #0
 1179 00fa 67D0     		beq	.L123
 287:lib/BTT/src/STFT.c ****               else
 1180              		.loc 1 287 17 is_stmt 1 view .LVU407
 1181 00fc 0092     		str	r2, [sp]
 1182 00fe 0A46     		mov	r2, r1
 1183 0100 236C     		ldr	r3, [r4, #64]
 1184 0102 E16B     		ldr	r1, [r4, #60]
 1185 0104 FFF7FEFF 		bl	dft_2_real_inverse_dfts
 1186              	.LVL92:
 1187              	.L125:
 291:lib/BTT/src/STFT.c ****                 {
 1188              		.loc 1 291 30 is_stmt 0 discriminator 1 view .LVU408
 1189 0108 A168     		ldr	r1, [r4, #8]
 1190 010a 0023     		movs	r3, #0
 1191              	.L124:
 1192              	.LVL93:
 291:lib/BTT/src/STFT.c ****                 {
 1193              		.loc 1 291 24 is_stmt 1 discriminator 1 view .LVU409
 291:lib/BTT/src/STFT.c ****                 {
 1194              		.loc 1 291 15 is_stmt 0 discriminator 1 view .LVU410
 1195 010c 9942     		cmp	r1, r3
 1196 010e C5DD     		ble	.L122
 293:lib/BTT/src/STFT.c ****                   if(two_inverses)
 1197              		.loc 1 293 19 is_stmt 1 view .LVU411
 293:lib/BTT/src/STFT.c ****                   if(two_inverses)
 1198              		.loc 1 293 59 is_stmt 0 view .LVU412
 1199 0110 E269     		ldr	r2, [r4, #28]
 1200 0112 9F00     		lsls	r7, r3, #2
 293:lib/BTT/src/STFT.c ****                   if(two_inverses)
 1201              		.loc 1 293 78 view .LVU413
 1202 0114 A06A     		ldr	r0, [r4, #40]
 293:lib/BTT/src/STFT.c ****                   if(two_inverses)
 1203              		.loc 1 293 59 view .LVU414
 1204 0116 03EB020C 		add	ip, r3, r2
 293:lib/BTT/src/STFT.c ****                   if(two_inverses)
 1205              		.loc 1 293 63 view .LVU415
 1206 011a 9CFBF1F2 		sdiv	r2, ip, r1
 1207 011e 01FB12CC 		mls	ip, r1, r2, ip
 293:lib/BTT/src/STFT.c ****                   if(two_inverses)
 1208              		.loc 1 293 78 view .LVU416
 1209 0122 4FEA8C02 		lsl	r2, ip, #2
 1210 0126 00EB8C0C 		add	ip, r0, ip, lsl #2
 293:lib/BTT/src/STFT.c ****                   if(two_inverses)
 1211              		.loc 1 293 91 view .LVU417
 1212 012a E06A     		ldr	r0, [r4, #44]
 1213 012c 00EB8300 		add	r0, r0, r3, lsl #2
 293:lib/BTT/src/STFT.c ****                   if(two_inverses)
ARM GAS  /var/folders/lw/_hmdf9396f92znj902yw3qj00000gn/T//ccOGyVsP.s 			page 33


 1214              		.loc 1 293 78 view .LVU418
 1215 0130 DCED007A 		vldr.32	s15, [ip]
 1216 0134 90ED007A 		vldr.32	s14, [r0]
 294:lib/BTT/src/STFT.c ****                     self->running_output_2[(self->output_index+j) % self->fft_N] += self->real_2[j]
 1217              		.loc 1 294 21 view .LVU419
 1218 0138 0E98     		ldr	r0, [sp, #56]
 293:lib/BTT/src/STFT.c ****                   if(two_inverses)
 1219              		.loc 1 293 78 view .LVU420
 1220 013a 77EE877A 		vadd.f32	s15, s15, s14
 1221 013e CCED007A 		vstr.32	s15, [ip]
 294:lib/BTT/src/STFT.c ****                     self->running_output_2[(self->output_index+j) % self->fft_N] += self->real_2[j]
 1222              		.loc 1 294 19 is_stmt 1 view .LVU421
 294:lib/BTT/src/STFT.c ****                     self->running_output_2[(self->output_index+j) % self->fft_N] += self->real_2[j]
 1223              		.loc 1 294 21 is_stmt 0 view .LVU422
 1224 0142 58B1     		cbz	r0, .L126
 295:lib/BTT/src/STFT.c ****                 }
 1225              		.loc 1 295 21 is_stmt 1 view .LVU423
 295:lib/BTT/src/STFT.c ****                 }
 1226              		.loc 1 295 82 is_stmt 0 view .LVU424
 1227 0144 A06B     		ldr	r0, [r4, #56]
 1228 0146 0244     		add	r2, r2, r0
 295:lib/BTT/src/STFT.c ****                 }
 1229              		.loc 1 295 97 view .LVU425
 1230 0148 E06B     		ldr	r0, [r4, #60]
 1231 014a 0744     		add	r7, r7, r0
 295:lib/BTT/src/STFT.c ****                 }
 1232              		.loc 1 295 82 view .LVU426
 1233 014c D2ED007A 		vldr.32	s15, [r2]
 1234 0150 97ED007A 		vldr.32	s14, [r7]
 1235 0154 77EE877A 		vadd.f32	s15, s15, s14
 1236 0158 C2ED007A 		vstr.32	s15, [r2]
 1237              	.L126:
 291:lib/BTT/src/STFT.c ****                 {
 1238              		.loc 1 291 39 is_stmt 1 discriminator 2 view .LVU427
 291:lib/BTT/src/STFT.c ****                 {
 1239              		.loc 1 291 40 is_stmt 0 discriminator 2 view .LVU428
 1240 015c 0133     		adds	r3, r3, #1
 1241              	.LVL94:
 291:lib/BTT/src/STFT.c ****                 {
 1242              		.loc 1 291 40 discriminator 2 view .LVU429
 1243 015e D5E7     		b	.L124
 1244              	.LVL95:
 1245              	.L119:
 265:lib/BTT/src/STFT.c ****               self->imag[j] = 0;
 1246              		.loc 1 265 15 is_stmt 1 discriminator 3 view .LVU430
 265:lib/BTT/src/STFT.c ****               self->imag[j] = 0;
 1247              		.loc 1 265 73 is_stmt 0 discriminator 3 view .LVU431
 1248 0160 03EB0E0B 		add	fp, r3, lr
 1249 0164 9BFBF2F1 		sdiv	r1, fp, r2
 1250 0168 02FB11BB 		mls	fp, r2, r1, fp
 265:lib/BTT/src/STFT.c ****               self->imag[j] = 0;
 1251              		.loc 1 265 50 discriminator 3 view .LVU432
 1252 016c 07EB8B01 		add	r1, r7, fp, lsl #2
 267:lib/BTT/src/STFT.c ****               self->imag_2[j] = 0;
 1253              		.loc 1 267 54 discriminator 3 view .LVU433
 1254 0170 0CEB8B0B 		add	fp, ip, fp, lsl #2
 265:lib/BTT/src/STFT.c ****               self->imag[j] = 0;
ARM GAS  /var/folders/lw/_hmdf9396f92znj902yw3qj00000gn/T//ccOGyVsP.s 			page 34


 1255              		.loc 1 265 50 discriminator 3 view .LVU434
 1256 0174 D1ED007A 		vldr.32	s15, [r1]
 265:lib/BTT/src/STFT.c ****               self->imag[j] = 0;
 1257              		.loc 1 265 29 discriminator 3 view .LVU435
 1258 0178 00EB8E01 		add	r1, r0, lr, lsl #2
 1259 017c C1ED007A 		vstr.32	s15, [r1]
 266:lib/BTT/src/STFT.c ****               self->real_2[j] = self->running_input_2[(self->input_index+j) % self->window_size];
 1260              		.loc 1 266 15 is_stmt 1 discriminator 3 view .LVU436
 266:lib/BTT/src/STFT.c ****               self->real_2[j] = self->running_input_2[(self->input_index+j) % self->window_size];
 1261              		.loc 1 266 29 is_stmt 0 discriminator 3 view .LVU437
 1262 0180 216B     		ldr	r1, [r4, #48]
 1263 0182 01EB8E01 		add	r1, r1, lr, lsl #2
 1264 0186 81ED008A 		vstr.32	s16, [r1]
 267:lib/BTT/src/STFT.c ****               self->imag_2[j] = 0;
 1265              		.loc 1 267 15 is_stmt 1 discriminator 3 view .LVU438
 267:lib/BTT/src/STFT.c ****               self->imag_2[j] = 0;
 1266              		.loc 1 267 31 is_stmt 0 discriminator 3 view .LVU439
 1267 018a E16B     		ldr	r1, [r4, #60]
 267:lib/BTT/src/STFT.c ****               self->imag_2[j] = 0;
 1268              		.loc 1 267 54 discriminator 3 view .LVU440
 1269 018c DBF800B0 		ldr	fp, [fp]	@ float
 267:lib/BTT/src/STFT.c ****               self->imag_2[j] = 0;
 1270              		.loc 1 267 31 discriminator 3 view .LVU441
 1271 0190 01EB8E01 		add	r1, r1, lr, lsl #2
 1272 0194 C1F800B0 		str	fp, [r1]	@ float
 268:lib/BTT/src/STFT.c ****             }
 1273              		.loc 1 268 15 is_stmt 1 discriminator 3 view .LVU442
 268:lib/BTT/src/STFT.c ****             }
 1274              		.loc 1 268 31 is_stmt 0 discriminator 3 view .LVU443
 1275 0198 216C     		ldr	r1, [r4, #64]
 1276 019a 01EB8E01 		add	r1, r1, lr, lsl #2
 263:lib/BTT/src/STFT.c ****             {
 1277              		.loc 1 263 42 discriminator 3 view .LVU444
 1278 019e 0EF1010E 		add	lr, lr, #1
 1279              	.LVL96:
 268:lib/BTT/src/STFT.c ****             }
 1280              		.loc 1 268 31 discriminator 3 view .LVU445
 1281 01a2 81ED008A 		vstr.32	s16, [r1]
 263:lib/BTT/src/STFT.c ****             {
 1282              		.loc 1 263 41 is_stmt 1 discriminator 3 view .LVU446
 1283              	.LVL97:
 263:lib/BTT/src/STFT.c ****             {
 1284              		.loc 1 263 41 is_stmt 0 discriminator 3 view .LVU447
 1285 01a6 80E7     		b	.L118
 1286              	.LVL98:
 1287              	.L121:
 275:lib/BTT/src/STFT.c ****               self->imag[j] = 0;
 1288              		.loc 1 275 15 is_stmt 1 discriminator 3 view .LVU448
 275:lib/BTT/src/STFT.c ****               self->imag[j] = 0;
 1289              		.loc 1 275 29 is_stmt 0 discriminator 3 view .LVU449
 1290 01a8 00EB870E 		add	lr, r0, r7, lsl #2
 1291 01ac 8EED008A 		vstr.32	s16, [lr]
 276:lib/BTT/src/STFT.c ****               self->real_2[j] = 0;
 1292              		.loc 1 276 15 is_stmt 1 discriminator 3 view .LVU450
 276:lib/BTT/src/STFT.c ****               self->real_2[j] = 0;
 1293              		.loc 1 276 29 is_stmt 0 discriminator 3 view .LVU451
 1294 01b0 02EB870E 		add	lr, r2, r7, lsl #2
ARM GAS  /var/folders/lw/_hmdf9396f92znj902yw3qj00000gn/T//ccOGyVsP.s 			page 35


 1295 01b4 8EED008A 		vstr.32	s16, [lr]
 277:lib/BTT/src/STFT.c ****               self->imag_2[j] = 0;
 1296              		.loc 1 277 15 is_stmt 1 discriminator 3 view .LVU452
 277:lib/BTT/src/STFT.c ****               self->imag_2[j] = 0;
 1297              		.loc 1 277 31 is_stmt 0 discriminator 3 view .LVU453
 1298 01b8 01EB870E 		add	lr, r1, r7, lsl #2
 1299 01bc 8EED008A 		vstr.32	s16, [lr]
 278:lib/BTT/src/STFT.c ****             }
 1300              		.loc 1 278 15 is_stmt 1 discriminator 3 view .LVU454
 278:lib/BTT/src/STFT.c ****             }
 1301              		.loc 1 278 31 is_stmt 0 discriminator 3 view .LVU455
 1302 01c0 03EB870E 		add	lr, r3, r7, lsl #2
 273:lib/BTT/src/STFT.c ****             {
 1303              		.loc 1 273 52 discriminator 3 view .LVU456
 1304 01c4 0137     		adds	r7, r7, #1
 1305              	.LVL99:
 278:lib/BTT/src/STFT.c ****             }
 1306              		.loc 1 278 31 discriminator 3 view .LVU457
 1307 01c6 8EED008A 		vstr.32	s16, [lr]
 273:lib/BTT/src/STFT.c ****             {
 1308              		.loc 1 273 51 is_stmt 1 discriminator 3 view .LVU458
 1309              	.LVL100:
 273:lib/BTT/src/STFT.c ****             {
 1310              		.loc 1 273 51 is_stmt 0 discriminator 3 view .LVU459
 1311 01ca 7EE7     		b	.L120
 1312              	.LVL101:
 1313              	.L123:
 289:lib/BTT/src/STFT.c ****         
 1314              		.loc 1 289 17 is_stmt 1 view .LVU460
 1315 01cc FFF7FEFF 		bl	dft_real_inverse_dft
 1316              	.LVL102:
 1317 01d0 9AE7     		b	.L125
 1318              	.L142:
 1319 01d2 00BF     		.align	2
 1320              	.L141:
 1321 01d4 00000000 		.word	0
 1322              		.cfi_endproc
 1323              	.LFE328:
 1325              		.text
 1326              	.Letext0:
 1327              		.file 2 "lib/BTT/src/DFT.h"
 1328              		.file 3 "lib/BTT/src/STFT.h"
 1329              		.file 4 "/Library/DaisyToolchain/0.2.0/arm/arm-none-eabi/include/stdlib.h"
ARM GAS  /var/folders/lw/_hmdf9396f92znj902yw3qj00000gn/T//ccOGyVsP.s 			page 36

